
build/insomniac.elf:     file format elf32-littleriscv


Disassembly of section .init:

00000000 <InterruptVector>:
   0:	37a0006f          	j	37a <handle_reset>
   4:	00000000          	.word	0x00000000
   8:	000003f0          	.word	0x000003f0
   c:	000003ee          	.word	0x000003ee
	...
  30:	000003ee          	.word	0x000003ee
  34:	00000000          	.word	0x00000000
  38:	000003ee          	.word	0x000003ee
  3c:	00000000          	.word	0x00000000
  40:	000003ee          	.word	0x000003ee
  44:	000003ee          	.word	0x000003ee
  48:	000003ee          	.word	0x000003ee
  4c:	000003ee          	.word	0x000003ee
  50:	000003ee          	.word	0x000003ee
  54:	000003ee          	.word	0x000003ee
  58:	000003ee          	.word	0x000003ee
  5c:	000003ee          	.word	0x000003ee
  60:	000003ee          	.word	0x000003ee
  64:	000003ee          	.word	0x000003ee
  68:	000003ee          	.word	0x000003ee
  6c:	000003ee          	.word	0x000003ee
  70:	000003ee          	.word	0x000003ee
  74:	000003ee          	.word	0x000003ee
  78:	000003ee          	.word	0x000003ee
  7c:	000003ee          	.word	0x000003ee
  80:	000003ee          	.word	0x000003ee
  84:	000003ee          	.word	0x000003ee
  88:	000003ee          	.word	0x000003ee
  8c:	000003ee          	.word	0x000003ee
  90:	000003ee          	.word	0x000003ee
  94:	000003ee          	.word	0x000003ee
  98:	000003ee          	.word	0x000003ee
  9c:	0000                	.insn	2, 0x
	...

Disassembly of section .text:

000000a0 <__divsi3>:
  a0:	02054e63          	bltz	a0,dc <__umodsi3+0x8>
  a4:	0405c363          	bltz	a1,ea <__umodsi3+0x16>

000000a8 <__hidden___udivsi3>:
  a8:	862e                	mv	a2,a1
  aa:	85aa                	mv	a1,a0
  ac:	557d                	li	a0,-1
  ae:	c215                	beqz	a2,d2 <__hidden___udivsi3+0x2a>
  b0:	4685                	li	a3,1
  b2:	00b67863          	bgeu	a2,a1,c2 <__hidden___udivsi3+0x1a>
  b6:	00c05663          	blez	a2,c2 <__hidden___udivsi3+0x1a>
  ba:	0606                	slli	a2,a2,0x1
  bc:	0686                	slli	a3,a3,0x1
  be:	feb66ce3          	bltu	a2,a1,b6 <__hidden___udivsi3+0xe>
  c2:	4501                	li	a0,0
  c4:	00c5e463          	bltu	a1,a2,cc <__hidden___udivsi3+0x24>
  c8:	8d91                	sub	a1,a1,a2
  ca:	8d55                	or	a0,a0,a3
  cc:	8285                	srli	a3,a3,0x1
  ce:	8205                	srli	a2,a2,0x1
  d0:	faf5                	bnez	a3,c4 <__hidden___udivsi3+0x1c>
  d2:	8082                	ret

000000d4 <__umodsi3>:
  d4:	8286                	mv	t0,ra
  d6:	3fc9                	jal	a8 <__hidden___udivsi3>
  d8:	852e                	mv	a0,a1
  da:	8282                	jr	t0
  dc:	40a00533          	neg	a0,a0
  e0:	00b04763          	bgtz	a1,ee <__umodsi3+0x1a>
  e4:	40b005b3          	neg	a1,a1
  e8:	b7c1                	j	a8 <__hidden___udivsi3>
  ea:	40b005b3          	neg	a1,a1
  ee:	8286                	mv	t0,ra
  f0:	3f65                	jal	a8 <__hidden___udivsi3>
  f2:	40a00533          	neg	a0,a0
  f6:	8282                	jr	t0

000000f8 <__modsi3>:
  f8:	8286                	mv	t0,ra
  fa:	0005c763          	bltz	a1,108 <__modsi3+0x10>
  fe:	00054963          	bltz	a0,110 <__modsi3+0x18>
 102:	375d                	jal	a8 <__hidden___udivsi3>
 104:	852e                	mv	a0,a1
 106:	8282                	jr	t0
 108:	40b005b3          	neg	a1,a1
 10c:	fe055be3          	bgez	a0,102 <__modsi3+0xa>
 110:	40a00533          	neg	a0,a0
 114:	3f51                	jal	a8 <__hidden___udivsi3>
 116:	40b00533          	neg	a0,a1
 11a:	8282                	jr	t0
	...

0000011e <mini_pad>:
 11e:	1131                	addi	sp,sp,-20
 120:	c426                	sw	s1,8(sp)
 122:	c806                	sw	ra,16(sp)
 124:	c622                	sw	s0,12(sp)
 126:	84ae                	mv	s1,a1
 128:	87aa                	mv	a5,a0
 12a:	85b2                	mv	a1,a2
 12c:	c699                	beqz	a3,13a <mini_pad+0x1c>
 12e:	4301                	li	t1,0
 130:	0096d763          	bge	a3,s1,13e <mini_pad+0x20>
 134:	84b6                	mv	s1,a3
 136:	4305                	li	t1,1
 138:	a019                	j	13e <mini_pad+0x20>
 13a:	4301                	li	t1,0
 13c:	86a6                	mv	a3,s1
 13e:	40968433          	sub	s0,a3,s1
 142:	00045363          	bgez	s0,148 <mini_pad+0x2a>
 146:	4401                	li	s0,0
 148:	8622                	mv	a2,s0
 14a:	853a                	mv	a0,a4
 14c:	c23e                	sw	a5,4(sp)
 14e:	c01a                	sw	t1,0(sp)
 150:	2369                	jal	6da <memset>
 152:	4302                	lw	t1,0(sp)
 154:	4792                	lw	a5,4(sp)
 156:	872a                	mv	a4,a0
 158:	008506b3          	add	a3,a0,s0
 15c:	4601                	li	a2,0
 15e:	40c485b3          	sub	a1,s1,a2
 162:	04b04263          	bgtz	a1,1a6 <mini_pad+0x88>
 166:	0004d363          	bgez	s1,16c <mini_pad+0x4e>
 16a:	4481                	li	s1,0
 16c:	009685b3          	add	a1,a3,s1
 170:	40e58533          	sub	a0,a1,a4
 174:	02030463          	beqz	t1,19c <mini_pad+0x7e>
 178:	02b77263          	bgeu	a4,a1,19c <mini_pad+0x7e>
 17c:	02a00793          	li	a5,42
 180:	fef58fa3          	sb	a5,-1(a1)
 184:	fff58693          	addi	a3,a1,-1
 188:	00d77a63          	bgeu	a4,a3,19c <mini_pad+0x7e>
 18c:	fef58f23          	sb	a5,-2(a1)
 190:	ffe58693          	addi	a3,a1,-2
 194:	00d77463          	bgeu	a4,a3,19c <mini_pad+0x7e>
 198:	fef58ea3          	sb	a5,-3(a1)
 19c:	40c2                	lw	ra,16(sp)
 19e:	4432                	lw	s0,12(sp)
 1a0:	44a2                	lw	s1,8(sp)
 1a2:	0151                	addi	sp,sp,20
 1a4:	8082                	ret
 1a6:	00c785b3          	add	a1,a5,a2
 1aa:	0005c503          	lbu	a0,0(a1)
 1ae:	00c685b3          	add	a1,a3,a2
 1b2:	0605                	addi	a2,a2,1
 1b4:	00a58023          	sb	a0,0(a1)
 1b8:	b75d                	j	15e <mini_pad+0x40>

000001ba <mini_itoa.part.0>:
 1ba:	1101                	addi	sp,sp,-32
 1bc:	ce06                	sw	ra,28(sp)
 1be:	cc22                	sw	s0,24(sp)
 1c0:	ca26                	sw	s1,20(sp)
 1c2:	c002                	sw	zero,0(sp)
 1c4:	832a                	mv	t1,a0
 1c6:	00055763          	bgez	a0,1d4 <mini_itoa.part.0+0x1a>
 1ca:	e689                	bnez	a3,1d4 <mini_itoa.part.0+0x1a>
 1cc:	4785                	li	a5,1
 1ce:	40a00333          	neg	t1,a0
 1d2:	c03e                	sw	a5,0(sp)
 1d4:	8a05                	andi	a2,a2,1
 1d6:	06100413          	li	s0,97
 1da:	c219                	beqz	a2,1e0 <mini_itoa.part.0+0x26>
 1dc:	04100413          	li	s0,65
 1e0:	84ba                	mv	s1,a4
 1e2:	1459                	addi	s0,s0,-10
 1e4:	851a                	mv	a0,t1
 1e6:	c83a                	sw	a4,16(sp)
 1e8:	c21a                	sw	t1,4(sp)
 1ea:	c62e                	sw	a1,12(sp)
 1ec:	c41a                	sw	t1,8(sp)
 1ee:	35dd                	jal	d4 <__umodsi3>
 1f0:	47a5                	li	a5,9
 1f2:	4322                	lw	t1,8(sp)
 1f4:	45b2                	lw	a1,12(sp)
 1f6:	4742                	lw	a4,16(sp)
 1f8:	0ff57693          	zext.b	a3,a0
 1fc:	06a7e163          	bltu	a5,a0,25e <mini_itoa.part.0+0xa4>
 200:	03068693          	addi	a3,a3,48
 204:	0ff6f693          	zext.b	a3,a3
 208:	00148793          	addi	a5,s1,1
 20c:	00d48023          	sb	a3,0(s1)
 210:	851a                	mv	a0,t1
 212:	c83a                	sw	a4,16(sp)
 214:	c63e                	sw	a5,12(sp)
 216:	c42e                	sw	a1,8(sp)
 218:	3d41                	jal	a8 <__hidden___udivsi3>
 21a:	4692                	lw	a3,4(sp)
 21c:	45a2                	lw	a1,8(sp)
 21e:	47b2                	lw	a5,12(sp)
 220:	4742                	lw	a4,16(sp)
 222:	832a                	mv	t1,a0
 224:	02b6fb63          	bgeu	a3,a1,25a <mini_itoa.part.0+0xa0>
 228:	4682                	lw	a3,0(sp)
 22a:	c699                	beqz	a3,238 <mini_itoa.part.0+0x7e>
 22c:	02d00693          	li	a3,45
 230:	00d78023          	sb	a3,0(a5)
 234:	00248793          	addi	a5,s1,2
 238:	40e78533          	sub	a0,a5,a4
 23c:	01f55693          	srli	a3,a0,0x1f
 240:	96aa                	add	a3,a3,a0
 242:	00078023          	sb	zero,0(a5)
 246:	8685                	srai	a3,a3,0x1
 248:	4601                	li	a2,0
 24a:	17fd                	addi	a5,a5,-1
 24c:	00d64b63          	blt	a2,a3,262 <mini_itoa.part.0+0xa8>
 250:	40f2                	lw	ra,28(sp)
 252:	4462                	lw	s0,24(sp)
 254:	44d2                	lw	s1,20(sp)
 256:	6105                	addi	sp,sp,32
 258:	8082                	ret
 25a:	84be                	mv	s1,a5
 25c:	b761                	j	1e4 <mini_itoa.part.0+0x2a>
 25e:	96a2                	add	a3,a3,s0
 260:	b755                	j	204 <mini_itoa.part.0+0x4a>
 262:	00c705b3          	add	a1,a4,a2
 266:	0007c283          	lbu	t0,0(a5)
 26a:	0005c303          	lbu	t1,0(a1)
 26e:	0605                	addi	a2,a2,1
 270:	00558023          	sb	t0,0(a1)
 274:	00678023          	sb	t1,0(a5)
 278:	bfc9                	j	24a <mini_itoa.part.0+0x90>

0000027a <internal_handle_input.constprop.0>:
 27a:	e00007b7          	lui	a5,0xe0000
 27e:	0f478793          	addi	a5,a5,244 # e00000f4 <__global_pointer$+0xbffff8f4>
 282:	439c                	lw	a5,0(a5)
 284:	8082                	ret

00000286 <_write.constprop.0>:
 286:	1101                	addi	sp,sp,-32
 288:	cc22                	sw	s0,24(sp)
 28a:	ce06                	sw	ra,28(sp)
 28c:	ca26                	sw	s1,20(sp)
 28e:	c02a                	sw	a0,0(sp)
 290:	c802                	sw	zero,16(sp)
 292:	842e                	mv	s0,a1
 294:	e1f9                	bnez	a1,35a <_write.constprop.0+0xd4>
 296:	e00007b7          	lui	a5,0xe0000
 29a:	0f478793          	addi	a5,a5,244 # e00000f4 <__global_pointer$+0xbffff8f4>
 29e:	439c                	lw	a5,0(a5)
 2a0:	c789                	beqz	a5,2aa <_write.constprop.0+0x24>
 2a2:	0807f793          	andi	a5,a5,128
 2a6:	e391                	bnez	a5,2aa <_write.constprop.0+0x24>
 2a8:	3fc9                	jal	27a <internal_handle_input.constprop.0>
 2aa:	40f2                	lw	ra,28(sp)
 2ac:	8522                	mv	a0,s0
 2ae:	4462                	lw	s0,24(sp)
 2b0:	44d2                	lw	s1,20(sp)
 2b2:	6105                	addi	sp,sp,32
 2b4:	8082                	ret
 2b6:	409406b3          	sub	a3,s0,s1
 2ba:	461d                	li	a2,7
 2bc:	8736                	mv	a4,a3
 2be:	00d65363          	bge	a2,a3,2c4 <_write.constprop.0+0x3e>
 2c2:	471d                	li	a4,7
 2c4:	00027637          	lui	a2,0x27
 2c8:	10160613          	addi	a2,a2,257 # 27101 <insomniac.c.3a741fe1+0x252eb>
 2cc:	00032583          	lw	a1,0(t1)
 2d0:	0805f513          	andi	a0,a1,128
 2d4:	ed3d                	bnez	a0,352 <_write.constprop.0+0xcc>
 2d6:	c981                	beqz	a1,2e6 <_write.constprop.0+0x60>
 2d8:	c61a                	sw	t1,12(sp)
 2da:	c43a                	sw	a4,8(sp)
 2dc:	c236                	sw	a3,4(sp)
 2de:	3f71                	jal	27a <internal_handle_input.constprop.0>
 2e0:	4332                	lw	t1,12(sp)
 2e2:	4722                	lw	a4,8(sp)
 2e4:	4692                	lw	a3,4(sp)
 2e6:	0036a693          	slti	a3,a3,3
 2ea:	4601                	li	a2,0
 2ec:	e299                	bnez	a3,2f2 <_write.constprop.0+0x6c>
 2ee:	ffd70613          	addi	a2,a4,-3
 2f2:	4782                	lw	a5,0(sp)
 2f4:	00348593          	addi	a1,s1,3
 2f8:	0808                	addi	a0,sp,16
 2fa:	95be                	add	a1,a1,a5
 2fc:	c41a                	sw	t1,8(sp)
 2fe:	c23a                	sw	a4,4(sp)
 300:	26f5                	jal	6ec <memcpy>
 302:	4642                	lw	a2,16(sp)
 304:	4782                	lw	a5,0(sp)
 306:	e00006b7          	lui	a3,0xe0000
 30a:	4322                	lw	t1,8(sp)
 30c:	4712                	lw	a4,4(sp)
 30e:	0f868693          	addi	a3,a3,248 # e00000f8 <__global_pointer$+0xbffff8f8>
 312:	c290                	sw	a2,0(a3)
 314:	458d                	li	a1,3
 316:	00978633          	add	a2,a5,s1
 31a:	4681                	li	a3,0
 31c:	00064283          	lbu	t0,0(a2)
 320:	0685                	addi	a3,a3,1
 322:	01068793          	addi	a5,a3,16
 326:	00278533          	add	a0,a5,sp
 32a:	00550023          	sb	t0,0(a0)
 32e:	00d70563          	beq	a4,a3,338 <_write.constprop.0+0xb2>
 332:	0605                	addi	a2,a2,1
 334:	feb694e3          	bne	a3,a1,31c <_write.constprop.0+0x96>
 338:	00470693          	addi	a3,a4,4
 33c:	f806e693          	ori	a3,a3,-128
 340:	00d10823          	sb	a3,16(sp)
 344:	46c2                	lw	a3,16(sp)
 346:	94ba                	add	s1,s1,a4
 348:	00d32023          	sw	a3,0(t1)
 34c:	f684c5e3          	blt	s1,s0,2b6 <_write.constprop.0+0x30>
 350:	bfa9                	j	2aa <_write.constprop.0+0x24>
 352:	167d                	addi	a2,a2,-1
 354:	fe25                	bnez	a2,2cc <_write.constprop.0+0x46>
 356:	8426                	mv	s0,s1
 358:	bf89                	j	2aa <_write.constprop.0+0x24>
 35a:	e0000337          	lui	t1,0xe0000
 35e:	4481                	li	s1,0
 360:	0f430313          	addi	t1,t1,244 # e00000f4 <__global_pointer$+0xbffff8f4>
 364:	b7e5                	j	34c <_write.constprop.0+0xc6>

00000366 <__puts_uart>:
 366:	1151                	addi	sp,sp,-12
 368:	c222                	sw	s0,4(sp)
 36a:	c406                	sw	ra,8(sp)
 36c:	842e                	mv	s0,a1
 36e:	3f21                	jal	286 <_write.constprop.0>
 370:	40a2                	lw	ra,8(sp)
 372:	8522                	mv	a0,s0
 374:	4412                	lw	s0,4(sp)
 376:	0131                	addi	sp,sp,12
 378:	8082                	ret

0000037a <handle_reset>:
 37a:	20000197          	auipc	gp,0x20000
 37e:	48618193          	addi	gp,gp,1158 # 20000800 <__global_pointer$>
 382:	00018113          	mv	sp,gp
 386:	08000513          	li	a0,128
 38a:	30051073          	csrw	mstatus,a0
 38e:	468d                	li	a3,3
 390:	00000517          	auipc	a0,0x0
 394:	c7050513          	addi	a0,a0,-912 # 0 <InterruptVector>
 398:	8d55                	or	a0,a0,a3
 39a:	30551073          	csrw	mtvec,a0
 39e:	80418513          	addi	a0,gp,-2044 # 20000004 <_ebss>
 3a2:	80418593          	addi	a1,gp,-2044 # 20000004 <_ebss>
 3a6:	4601                	li	a2,0
 3a8:	00b55663          	bge	a0,a1,3b4 <handle_reset+0x3a>
 3ac:	c110                	sw	a2,0(a0)
 3ae:	0511                	addi	a0,a0,4
 3b0:	feb54ee3          	blt	a0,a1,3ac <handle_reset+0x32>
 3b4:	00000517          	auipc	a0,0x0
 3b8:	45c50513          	addi	a0,a0,1116 # 810 <_data_lma>
 3bc:	20000597          	auipc	a1,0x20000
 3c0:	c4458593          	addi	a1,a1,-956 # 20000000 <C.0.0>
 3c4:	80418613          	addi	a2,gp,-2044 # 20000004 <_ebss>
 3c8:	00c58863          	beq	a1,a2,3d8 <handle_reset+0x5e>
 3cc:	4114                	lw	a3,0(a0)
 3ce:	c194                	sw	a3,0(a1)
 3d0:	0511                	addi	a0,a0,4
 3d2:	0591                	addi	a1,a1,4
 3d4:	fec59ae3          	bne	a1,a2,3c8 <handle_reset+0x4e>
 3d8:	e000f7b7          	lui	a5,0xe000f
 3dc:	4705                	li	a4,1
 3de:	c398                	sw	a4,0(a5)
 3e0:	4781                	li	a5,0
 3e2:	79600793          	li	a5,1942
 3e6:	34179073          	csrw	mepc,a5
 3ea:	30200073          	mret

000003ee <ADC1_IRQHandler>:
 3ee:	a001                	j	3ee <ADC1_IRQHandler>

000003f0 <NMI_Handler>:
 3f0:	40021737          	lui	a4,0x40021
 3f4:	471c                	lw	a5,8(a4)
 3f6:	008006b7          	lui	a3,0x800
 3fa:	8fd5                	or	a5,a5,a3
 3fc:	c71c                	sw	a5,8(a4)

000003fe <strlen>:
 3fe:	87aa                	mv	a5,a0
 400:	0007c703          	lbu	a4,0(a5) # e000f000 <__global_pointer$+0xc000e800>
 404:	e701                	bnez	a4,40c <strlen+0xe>
 406:	40a78533          	sub	a0,a5,a0
 40a:	8082                	ret
 40c:	0785                	addi	a5,a5,1
 40e:	bfcd                	j	400 <strlen+0x2>

00000410 <mini_vpprintf>:
 410:	fa410113          	addi	sp,sp,-92
 414:	caa2                	sw	s0,84(sp)
 416:	c8a6                	sw	s1,80(sp)
 418:	cc86                	sw	ra,88(sp)
 41a:	c02a                	sw	a0,0(sp)
 41c:	c22e                	sw	a1,4(sp)
 41e:	8432                	mv	s0,a2
 420:	84b6                	mv	s1,a3
 422:	ca02                	sw	zero,20(sp)
 424:	00044783          	lbu	a5,0(s0)
 428:	00140693          	addi	a3,s0,1
 42c:	00f10fa3          	sb	a5,31(sp)
 430:	eb81                	bnez	a5,440 <mini_vpprintf+0x30>
 432:	40e6                	lw	ra,88(sp)
 434:	4456                	lw	s0,84(sp)
 436:	4552                	lw	a0,20(sp)
 438:	44c6                	lw	s1,80(sp)
 43a:	05c10113          	addi	sp,sp,92
 43e:	8082                	ret
 440:	c636                	sw	a3,12(sp)
 442:	02500713          	li	a4,37
 446:	02e78063          	beq	a5,a4,466 <mini_vpprintf+0x56>
 44a:	4612                	lw	a2,4(sp)
 44c:	4782                	lw	a5,0(sp)
 44e:	4585                	li	a1,1
 450:	01f10513          	addi	a0,sp,31
 454:	9782                	jalr	a5
 456:	46b2                	lw	a3,12(sp)
 458:	c426                	sw	s1,8(sp)
 45a:	8436                	mv	s0,a3
 45c:	47d2                	lw	a5,20(sp)
 45e:	44a2                	lw	s1,8(sp)
 460:	97aa                	add	a5,a5,a0
 462:	ca3e                	sw	a5,20(sp)
 464:	b7c1                	j	424 <mini_vpprintf+0x14>
 466:	00144703          	lbu	a4,1(s0)
 46a:	03000613          	li	a2,48
 46e:	03000693          	li	a3,48
 472:	00e10fa3          	sb	a4,31(sp)
 476:	c632                	sw	a2,12(sp)
 478:	00240793          	addi	a5,s0,2
 47c:	08d71263          	bne	a4,a3,500 <mini_vpprintf+0xf0>
 480:	843e                	mv	s0,a5
 482:	4681                	li	a3,0
 484:	4781                	li	a5,0
 486:	45a5                	li	a1,9
 488:	a811                	j	49c <mini_vpprintf+0x8c>
 48a:	00279713          	slli	a4,a5,0x2
 48e:	0405                	addi	s0,s0,1
 490:	97ba                	add	a5,a5,a4
 492:	fff44703          	lbu	a4,-1(s0)
 496:	0786                	slli	a5,a5,0x1
 498:	97b2                	add	a5,a5,a2
 49a:	4685                	li	a3,1
 49c:	fd070613          	addi	a2,a4,-48 # 40020fd0 <__global_pointer$+0x200207d0>
 4a0:	0ff67513          	zext.b	a0,a2
 4a4:	fea5f3e3          	bgeu	a1,a0,48a <mini_vpprintf+0x7a>
 4a8:	c299                	beqz	a3,4ae <mini_vpprintf+0x9e>
 4aa:	00e10fa3          	sb	a4,31(sp)
 4ae:	c83e                	sw	a5,16(sp)
 4b0:	46e1                	li	a3,24
 4b2:	00f6d363          	bge	a3,a5,4b8 <mini_vpprintf+0xa8>
 4b6:	c836                	sw	a3,16(sp)
 4b8:	06c00613          	li	a2,108
 4bc:	4681                	li	a3,0
 4be:	00c71863          	bne	a4,a2,4ce <mini_vpprintf+0xbe>
 4c2:	00044703          	lbu	a4,0(s0)
 4c6:	4685                	li	a3,1
 4c8:	0405                	addi	s0,s0,1
 4ca:	00e10fa3          	sb	a4,31(sp)
 4ce:	01f14603          	lbu	a2,31(sp)
 4d2:	06400713          	li	a4,100
 4d6:	06e60563          	beq	a2,a4,540 <mini_vpprintf+0x130>
 4da:	02c76763          	bltu	a4,a2,508 <mini_vpprintf+0xf8>
 4de:	05800793          	li	a5,88
 4e2:	0af60063          	beq	a2,a5,582 <mini_vpprintf+0x172>
 4e6:	06300793          	li	a5,99
 4ea:	0af60d63          	beq	a2,a5,5a4 <mini_vpprintf+0x194>
 4ee:	d231                	beqz	a2,432 <mini_vpprintf+0x22>
 4f0:	4612                	lw	a2,4(sp)
 4f2:	4782                	lw	a5,0(sp)
 4f4:	4585                	li	a1,1
 4f6:	01f10513          	addi	a0,sp,31
 4fa:	9782                	jalr	a5
 4fc:	c426                	sw	s1,8(sp)
 4fe:	bfb9                	j	45c <mini_vpprintf+0x4c>
 500:	02000693          	li	a3,32
 504:	c636                	sw	a3,12(sp)
 506:	bfad                	j	480 <mini_vpprintf+0x70>
 508:	07500713          	li	a4,117
 50c:	02e60a63          	beq	a2,a4,540 <mini_vpprintf+0x130>
 510:	07800713          	li	a4,120
 514:	06e60763          	beq	a2,a4,582 <mini_vpprintf+0x172>
 518:	07300713          	li	a4,115
 51c:	fce61ae3          	bne	a2,a4,4f0 <mini_vpprintf+0xe0>
 520:	cc3e                	sw	a5,24(sp)
 522:	00448793          	addi	a5,s1,4
 526:	4084                	lw	s1,0(s1)
 528:	c43e                	sw	a5,8(sp)
 52a:	8526                	mv	a0,s1
 52c:	3dc9                	jal	3fe <strlen>
 52e:	47e2                	lw	a5,24(sp)
 530:	85aa                	mv	a1,a0
 532:	08f05663          	blez	a5,5be <mini_vpprintf+0x1ae>
 536:	46c2                	lw	a3,16(sp)
 538:	4632                	lw	a2,12(sp)
 53a:	1838                	addi	a4,sp,56
 53c:	8526                	mv	a0,s1
 53e:	a01d                	j	564 <mini_vpprintf+0x154>
 540:	00448793          	addi	a5,s1,4
 544:	c43e                	sw	a5,8(sp)
 546:	c695                	beqz	a3,572 <mini_vpprintf+0x162>
 548:	f8b60613          	addi	a2,a2,-117
 54c:	1018                	addi	a4,sp,32
 54e:	00163693          	seqz	a3,a2
 552:	4088                	lw	a0,0(s1)
 554:	4601                	li	a2,0
 556:	45a9                	li	a1,10
 558:	318d                	jal	1ba <mini_itoa.part.0>
 55a:	46c2                	lw	a3,16(sp)
 55c:	4632                	lw	a2,12(sp)
 55e:	1838                	addi	a4,sp,56
 560:	85aa                	mv	a1,a0
 562:	1008                	addi	a0,sp,32
 564:	3e6d                	jal	11e <mini_pad>
 566:	4612                	lw	a2,4(sp)
 568:	85aa                	mv	a1,a0
 56a:	1828                	addi	a0,sp,56
 56c:	4782                	lw	a5,0(sp)
 56e:	9782                	jalr	a5
 570:	b5f5                	j	45c <mini_vpprintf+0x4c>
 572:	07500793          	li	a5,117
 576:	1018                	addi	a4,sp,32
 578:	4685                	li	a3,1
 57a:	fcf60ce3          	beq	a2,a5,552 <mini_vpprintf+0x142>
 57e:	4681                	li	a3,0
 580:	bfc9                	j	552 <mini_vpprintf+0x142>
 582:	4088                	lw	a0,0(s1)
 584:	fa860613          	addi	a2,a2,-88
 588:	00448793          	addi	a5,s1,4
 58c:	1018                	addi	a4,sp,32
 58e:	4685                	li	a3,1
 590:	00163613          	seqz	a2,a2
 594:	45c1                	li	a1,16
 596:	c43e                	sw	a5,8(sp)
 598:	310d                	jal	1ba <mini_itoa.part.0>
 59a:	46c2                	lw	a3,16(sp)
 59c:	4632                	lw	a2,12(sp)
 59e:	85aa                	mv	a1,a0
 5a0:	1838                	addi	a4,sp,56
 5a2:	b7c1                	j	562 <mini_vpprintf+0x152>
 5a4:	00448793          	addi	a5,s1,4
 5a8:	c43e                	sw	a5,8(sp)
 5aa:	409c                	lw	a5,0(s1)
 5ac:	46c2                	lw	a3,16(sp)
 5ae:	4632                	lw	a2,12(sp)
 5b0:	00f10fa3          	sb	a5,31(sp)
 5b4:	1838                	addi	a4,sp,56
 5b6:	4585                	li	a1,1
 5b8:	01f10513          	addi	a0,sp,31
 5bc:	b765                	j	564 <mini_vpprintf+0x154>
 5be:	4612                	lw	a2,4(sp)
 5c0:	8526                	mv	a0,s1
 5c2:	b76d                	j	56c <mini_vpprintf+0x15c>

000005c4 <printf>:
 5c4:	fdc10113          	addi	sp,sp,-36
 5c8:	ca32                	sw	a2,20(sp)
 5ca:	862a                	mv	a2,a0
 5cc:	c82e                	sw	a1,16(sp)
 5ce:	cc36                	sw	a3,24(sp)
 5d0:	4581                	li	a1,0
 5d2:	0814                	addi	a3,sp,16
 5d4:	36600513          	li	a0,870
 5d8:	c606                	sw	ra,12(sp)
 5da:	ce3a                	sw	a4,28(sp)
 5dc:	d03e                	sw	a5,32(sp)
 5de:	c036                	sw	a3,0(sp)
 5e0:	3d05                	jal	410 <mini_vpprintf>
 5e2:	40b2                	lw	ra,12(sp)
 5e4:	02410113          	addi	sp,sp,36
 5e8:	8082                	ret

000005ea <move_to_endpoint>:
	return MD_BUFFER_OK;
}


void move_to_endpoint(const position_t endpoint)
{
 5ea:	fc810113          	addi	sp,sp,-56
 5ee:	d822                	sw	s0,48(sp)
 5f0:	842a                	mv	s0,a0
 5f2:	0442                	slli	s0,s0,0x10
 5f4:	41055793          	srai	a5,a0,0x10
 5f8:	8441                	srai	s0,s0,0x10
 5fa:	c03e                	sw	a5,0(sp)
	uint32_t mask = x >> 31; // Extract the sign bit
 5fc:	41f45793          	srai	a5,s0,0x1f
	return (x ^ mask) - mask;
 600:	00f44733          	xor	a4,s0,a5
 604:	8f1d                	sub	a4,a4,a5
 606:	4782                	lw	a5,0(sp)
	uint32_t mask = x >> 31; // Extract the sign bit
 608:	857d                	srai	a0,a0,0x1f
{
 60a:	da06                	sw	ra,52(sp)
	return (x ^ mask) - mask;
 60c:	00a7c6b3          	xor	a3,a5,a0
{
 610:	d626                	sw	s1,44(sp)
	return (x ^ mask) - mask;
 612:	8e89                	sub	a3,a3,a0
	// Bresenham variables
	// Delta x and y - total distances to cover in x and y direction
	int32_t x_delta = int_abs(endpoint.x - startpoint.x);
	int32_t y_delta = int_abs(endpoint.y - startpoint.y);
	// Which direction to step in
	int32_t x_step = (startpoint.x < endpoint.x)  ?  1 : -1;
 614:	4305                	li	t1,1
 616:	00804363          	bgtz	s0,61c <move_to_endpoint+0x32>
 61a:	537d                	li	t1,-1
	int32_t y_step = (startpoint.y < endpoint.y)  ?  1 : -1;
 61c:	4782                	lw	a5,0(sp)
 61e:	52fd                	li	t0,-1
 620:	00f05363          	blez	a5,626 <move_to_endpoint+0x3c>
 624:	4285                	li	t0,1
	// Accumulated Error - how far from the ideal line we are
	int32_t err = x_delta - y_delta;
 626:	fff30613          	addi	a2,t1,-1
 62a:	40d707b3          	sub	a5,a4,a3


	// Step through the line until the destination is reached
	while(startpoint.x != endpoint.x || startpoint.y != endpoint.y) 
 62e:	ea0d                	bnez	a2,660 <move_to_endpoint+0x76>
 630:	4601                	li	a2,0
 632:	7d400613          	li	a2,2004
 636:	c232                	sw	a2,4(sp)
 638:	fff28613          	addi	a2,t0,-1
 63c:	e615                	bnez	a2,668 <move_to_endpoint+0x7e>
 63e:	4601                	li	a2,0
 640:	7e400613          	li	a2,2020
 644:	c432                	sw	a2,8(sp)
 	position_t startpoint = {0, 0};
 646:	4481                	li	s1,0
 648:	4601                	li	a2,0
	while(startpoint.x != endpoint.x || startpoint.y != endpoint.y) 
 64a:	02c41363          	bne	s0,a2,670 <move_to_endpoint+0x86>
 64e:	4582                	lw	a1,0(sp)
 650:	02b49063          	bne	s1,a1,670 <move_to_endpoint+0x86>

			// TODO:
			printf("Step: %s\n", (y_step > 0) ? "up" : "down");
		}
	}
}
 654:	50d2                	lw	ra,52(sp)
 656:	5442                	lw	s0,48(sp)
 658:	54b2                	lw	s1,44(sp)
 65a:	03810113          	addi	sp,sp,56
 65e:	8082                	ret
 660:	4601                	li	a2,0
 662:	7dc00613          	li	a2,2012
 666:	bfc1                	j	636 <move_to_endpoint+0x4c>
 668:	4601                	li	a2,0
 66a:	7e800613          	li	a2,2024
 66e:	bfd9                	j	644 <move_to_endpoint+0x5a>
		int32_t err2 = err * 2;
 670:	00179393          	slli	t2,a5,0x1
		if(err2 > -y_delta)
 674:	40d005b3          	neg	a1,a3
 678:	0275d963          	bge	a1,t2,6aa <move_to_endpoint+0xc0>
			err -= y_delta;
 67c:	8f95                	sub	a5,a5,a3
			startpoint.x += x_step;
 67e:	961a                	add	a2,a2,t1
			printf("Step: %s\n", (x_step > 0) ? "right" : "left");
 680:	4592                	lw	a1,4(sp)
			err -= y_delta;
 682:	ca3e                	sw	a5,20(sp)
			startpoint.x += x_step;
 684:	0642                	slli	a2,a2,0x10
			printf("Step: %s\n", (x_step > 0) ? "right" : "left");
 686:	4781                	li	a5,0
			startpoint.x += x_step;
 688:	8641                	srai	a2,a2,0x10
			printf("Step: %s\n", (x_step > 0) ? "right" : "left");
 68a:	7f000513          	li	a0,2032
 68e:	d21e                	sw	t2,36(sp)
 690:	d03a                	sw	a4,32(sp)
 692:	ce16                	sw	t0,28(sp)
			err -= y_delta;
 694:	cc36                	sw	a3,24(sp)
			startpoint.x += x_step;
 696:	c81a                	sw	t1,16(sp)
 698:	c632                	sw	a2,12(sp)
			printf("Step: %s\n", (x_step > 0) ? "right" : "left");
 69a:	372d                	jal	5c4 <printf>
 69c:	5392                	lw	t2,36(sp)
 69e:	5702                	lw	a4,32(sp)
 6a0:	42f2                	lw	t0,28(sp)
 6a2:	46e2                	lw	a3,24(sp)
 6a4:	47d2                	lw	a5,20(sp)
 6a6:	4342                	lw	t1,16(sp)
 6a8:	4632                	lw	a2,12(sp)
		if(err2 < x_delta) 
 6aa:	fae3d0e3          	bge	t2,a4,64a <move_to_endpoint+0x60>
			err += x_delta;
 6ae:	97ba                	add	a5,a5,a4
			printf("Step: %s\n", (y_step > 0) ? "up" : "down");
 6b0:	45a2                	lw	a1,8(sp)
			err += x_delta;
 6b2:	c83e                	sw	a5,16(sp)
			printf("Step: %s\n", (y_step > 0) ? "up" : "down");
 6b4:	4781                	li	a5,0
			startpoint.y += y_step;
 6b6:	9496                	add	s1,s1,t0
			printf("Step: %s\n", (y_step > 0) ? "up" : "down");
 6b8:	7f000513          	li	a0,2032
 6bc:	d032                	sw	a2,32(sp)
 6be:	ce36                	sw	a3,28(sp)
 6c0:	cc1a                	sw	t1,24(sp)
			err += x_delta;
 6c2:	ca3a                	sw	a4,20(sp)
			startpoint.y += y_step;
 6c4:	c616                	sw	t0,12(sp)
 6c6:	04c2                	slli	s1,s1,0x10
			printf("Step: %s\n", (y_step > 0) ? "up" : "down");
 6c8:	3df5                	jal	5c4 <printf>
 6ca:	5602                	lw	a2,32(sp)
 6cc:	46f2                	lw	a3,28(sp)
 6ce:	4362                	lw	t1,24(sp)
 6d0:	4752                	lw	a4,20(sp)
 6d2:	47c2                	lw	a5,16(sp)
 6d4:	42b2                	lw	t0,12(sp)
			startpoint.y += y_step;
 6d6:	84c1                	srai	s1,s1,0x10
			printf("Step: %s\n", (y_step > 0) ? "up" : "down");
 6d8:	bf8d                	j	64a <move_to_endpoint+0x60>

000006da <memset>:
 6da:	962a                	add	a2,a2,a0
 6dc:	87aa                	mv	a5,a0
 6de:	00c79363          	bne	a5,a2,6e4 <memset+0xa>
 6e2:	8082                	ret
 6e4:	00b78023          	sb	a1,0(a5)
 6e8:	0785                	addi	a5,a5,1
 6ea:	bfd5                	j	6de <memset+0x4>

000006ec <memcpy>:
 6ec:	4781                	li	a5,0
 6ee:	00f61363          	bne	a2,a5,6f4 <memcpy+0x8>
 6f2:	8082                	ret
 6f4:	00f58733          	add	a4,a1,a5
 6f8:	00074683          	lbu	a3,0(a4)
 6fc:	00f50733          	add	a4,a0,a5
 700:	0785                	addi	a5,a5,1
 702:	00d70023          	sb	a3,0(a4)
 706:	b7e5                	j	6ee <memcpy+0x2>

00000708 <puts>:
 708:	1151                	addi	sp,sp,-12
 70a:	c406                	sw	ra,8(sp)
 70c:	c222                	sw	s0,4(sp)
 70e:	c026                	sw	s1,0(sp)
 710:	84aa                	mv	s1,a0
 712:	31f5                	jal	3fe <strlen>
 714:	842a                	mv	s0,a0
 716:	85aa                	mv	a1,a0
 718:	8526                	mv	a0,s1
 71a:	36b5                	jal	286 <_write.constprop.0>
 71c:	4501                	li	a0,0
 71e:	4585                	li	a1,1
 720:	7f800513          	li	a0,2040
 724:	368d                	jal	286 <_write.constprop.0>
 726:	40a2                	lw	ra,8(sp)
 728:	00140513          	addi	a0,s0,1
 72c:	4412                	lw	s0,4(sp)
 72e:	4482                	lw	s1,0(sp)
 730:	0131                	addi	sp,sp,12
 732:	8082                	ret

00000734 <SystemInit>:
 734:	400227b7          	lui	a5,0x40022
 738:	4705                	li	a4,1
 73a:	c398                	sw	a4,0(a5)
 73c:	400217b7          	lui	a5,0x40021
 740:	01080737          	lui	a4,0x1080
 744:	0007a223          	sw	zero,4(a5) # 40021004 <__global_pointer$+0x20020804>
 748:	08170713          	addi	a4,a4,129 # 1080081 <insomniac.c.3a741fe1+0x107e26b>
 74c:	c398                	sw	a4,0(a5)
 74e:	009f0737          	lui	a4,0x9f0
 752:	c798                	sw	a4,8(a5)
 754:	40021737          	lui	a4,0x40021
 758:	431c                	lw	a5,0(a4)
 75a:	00679693          	slli	a3,a5,0x6
 75e:	fe06dde3          	bgez	a3,758 <SystemInit+0x24>
 762:	435c                	lw	a5,4(a4)
 764:	400216b7          	lui	a3,0x40021
 768:	9bf1                	andi	a5,a5,-4
 76a:	0027e793          	ori	a5,a5,2
 76e:	c35c                	sw	a5,4(a4)
 770:	4721                	li	a4,8
 772:	42dc                	lw	a5,4(a3)
 774:	8bb1                	andi	a5,a5,12
 776:	fee79ee3          	bne	a5,a4,772 <SystemInit+0x3e>
 77a:	e00007b7          	lui	a5,0xe0000
 77e:	0f878793          	addi	a5,a5,248 # e00000f8 <__global_pointer$+0xbffff8f8>
 782:	0007a023          	sw	zero,0(a5)
 786:	e00007b7          	lui	a5,0xe0000
 78a:	0f478793          	addi	a5,a5,244 # e00000f4 <__global_pointer$+0xbffff8f4>
 78e:	08000713          	li	a4,128
 792:	c398                	sw	a4,0(a5)
 794:	8082                	ret

00000796 <main>:
{
 796:	1131                	addi	sp,sp,-20
 798:	c806                	sw	ra,16(sp)
	SystemInit();
 79a:	3f69                	jal	734 <SystemInit>
	printf("5,0\n");
 79c:	4501                	li	a0,0
 79e:	7fc00513          	li	a0,2044
 7a2:	379d                	jal	708 <puts>
	move_to_endpoint( (const position_t){-5, 0});
 7a4:	6541                	lui	a0,0x10
 7a6:	156d                	addi	a0,a0,-5 # fffb <insomniac.c.3a741fe1+0xe1e5>
 7a8:	3589                	jal	5ea <move_to_endpoint>
	printf("\n\n0,5\n");
 7aa:	6505                	lui	a0,0x1
 7ac:	80050513          	addi	a0,a0,-2048 # 800 <main+0x6a>
 7b0:	3fa1                	jal	708 <puts>
	move_to_endpoint( (const position_t){0, -5});
 7b2:	fffb0537          	lui	a0,0xfffb0
 7b6:	3d15                	jal	5ea <move_to_endpoint>
	printf("\n\n5,5\n");
 7b8:	6505                	lui	a0,0x1
 7ba:	80850513          	addi	a0,a0,-2040 # 808 <main+0x72>
 7be:	37a9                	jal	708 <puts>
	move_to_endpoint( (const position_t){-5, -5});
 7c0:	200007b7          	lui	a5,0x20000
 7c4:	0007a503          	lw	a0,0(a5) # 20000000 <C.0.0>
 7c8:	350d                	jal	5ea <move_to_endpoint>
}
 7ca:	40c2                	lw	ra,16(sp)
 7cc:	4501                	li	a0,0
 7ce:	0151                	addi	sp,sp,20
 7d0:	8082                	ret
 7d2:	0000                	unimp
 7d4:	6972                	.insn	2, 0x6972
 7d6:	00746867          	.insn	4, 0x00746867
 7da:	0000                	unimp
 7dc:	656c                	.insn	2, 0x656c
 7de:	7466                	.insn	2, 0x7466
 7e0:	0000                	unimp
 7e2:	0000                	unimp
 7e4:	7075                	c.lui	zero,0xffffd
 7e6:	0000                	unimp
 7e8:	6f64                	.insn	2, 0x6f64
 7ea:	00006e77          	.insn	4, 0x6e77
 7ee:	0000                	unimp
 7f0:	70657453          	.insn	4, 0x70657453
 7f4:	203a                	.insn	2, 0x203a
 7f6:	7325                	lui	t1,0xfffe9
 7f8:	000a                	c.slli	zero,0x2
 7fa:	0000                	unimp
 7fc:	2c35                	jal	a38 <_data_lma+0x228>
 7fe:	0030                	addi	a2,sp,8
 800:	0a0a                	slli	s4,s4,0x2
 802:	2c30                	.insn	2, 0x2c30
 804:	0035                	c.nop	13
 806:	0000                	unimp
 808:	0a0a                	slli	s4,s4,0x2
 80a:	2c35                	jal	a46 <_data_lma+0x236>
 80c:	0035                	c.nop	13
	...
