
build/insomniac.elf:     file format elf32-littleriscv


Disassembly of section .init:

00000000 <InterruptVector>:

#if defined( CH32V003 ) || defined( CH32X03x )

void InterruptVectorDefault()
{
	asm volatile( "\n\
   0:	73a0206f          	j	273a <handle_reset>
   4:	00000000          	.word	0x00000000
   8:	000027b0          	.word	0x000027b0
   c:	000027ae          	.word	0x000027ae
	...
  30:	000027ae          	.word	0x000027ae
  34:	00000000          	.word	0x00000000
  38:	000027ae          	.word	0x000027ae
  3c:	00000000          	.word	0x00000000
  40:	000027ae          	.word	0x000027ae
  44:	000027ae          	.word	0x000027ae
  48:	000027ae          	.word	0x000027ae
  4c:	000027ae          	.word	0x000027ae
  50:	000027ae          	.word	0x000027ae
  54:	000027ae          	.word	0x000027ae
  58:	000027ae          	.word	0x000027ae
  5c:	000027ae          	.word	0x000027ae
  60:	000027ae          	.word	0x000027ae
  64:	000027ae          	.word	0x000027ae
  68:	000027ae          	.word	0x000027ae
  6c:	000027ae          	.word	0x000027ae
  70:	000027ae          	.word	0x000027ae
  74:	000027ae          	.word	0x000027ae
  78:	000027ae          	.word	0x000027ae
  7c:	000027ae          	.word	0x000027ae
  80:	000027ae          	.word	0x000027ae
  84:	000027ae          	.word	0x000027ae
  88:	000027ae          	.word	0x000027ae
  8c:	000027ae          	.word	0x000027ae
  90:	000027ae          	.word	0x000027ae
  94:	000027ae          	.word	0x000027ae
  98:	000027ae          	.word	0x000027ae
  9c:	0000                	unimp
	...

Disassembly of section .text:

000000a0 <__adddf3>:
      a0:	00100737          	lui	a4,0x100
      a4:	177d                	addi	a4,a4,-1 # fffff <_data_lma+0xfd03b>
      a6:	1131                	addi	sp,sp,-20
      a8:	00b777b3          	and	a5,a4,a1
      ac:	0146d313          	srli	t1,a3,0x14
      b0:	8f75                	and	a4,a4,a3
      b2:	c622                	sw	s0,12(sp)
      b4:	c426                	sw	s1,8(sp)
      b6:	01f5d413          	srli	s0,a1,0x1f
      ba:	0145d493          	srli	s1,a1,0x14
      be:	00379593          	slli	a1,a5,0x3
      c2:	01d55793          	srli	a5,a0,0x1d
      c6:	7ff4f493          	andi	s1,s1,2047
      ca:	8fcd                	or	a5,a5,a1
      cc:	7ff37313          	andi	t1,t1,2047
      d0:	01d65593          	srli	a1,a2,0x1d
      d4:	070e                	slli	a4,a4,0x3
      d6:	c806                	sw	ra,16(sp)
      d8:	82fd                	srli	a3,a3,0x1f
      da:	050e                	slli	a0,a0,0x3
      dc:	8dd9                	or	a1,a1,a4
      de:	060e                	slli	a2,a2,0x3
      e0:	406482b3          	sub	t0,s1,t1
      e4:	26d41963          	bne	s0,a3,356 <__adddf3+0x2b6>
      e8:	12505263          	blez	t0,20c <__adddf3+0x16c>
      ec:	06031e63          	bnez	t1,168 <__adddf3+0xc8>
      f0:	00c5e733          	or	a4,a1,a2
      f4:	5a070863          	beqz	a4,6a4 <__adddf3+0x604>
      f8:	fff28713          	addi	a4,t0,-1
      fc:	ef39                	bnez	a4,15a <__adddf3+0xba>
      fe:	962a                	add	a2,a2,a0
     100:	00a63733          	sltu	a4,a2,a0
     104:	95be                	add	a1,a1,a5
     106:	00e587b3          	add	a5,a1,a4
     10a:	00800737          	lui	a4,0x800
     10e:	8f7d                	and	a4,a4,a5
     110:	8532                	mv	a0,a2
     112:	22071463          	bnez	a4,33a <__adddf3+0x29a>
     116:	4485                	li	s1,1
     118:	00757713          	andi	a4,a0,7
     11c:	cf01                	beqz	a4,134 <__adddf3+0x94>
     11e:	00f57713          	andi	a4,a0,15
     122:	4691                	li	a3,4
     124:	00d70863          	beq	a4,a3,134 <__adddf3+0x94>
     128:	00450713          	addi	a4,a0,4
     12c:	00a736b3          	sltu	a3,a4,a0
     130:	97b6                	add	a5,a5,a3
     132:	853a                	mv	a0,a4
     134:	00800737          	lui	a4,0x800
     138:	8f7d                	and	a4,a4,a5
     13a:	56070b63          	beqz	a4,6b0 <__adddf3+0x610>
     13e:	0485                	addi	s1,s1,1
     140:	7ff00713          	li	a4,2047
     144:	08e48463          	beq	s1,a4,1cc <__adddf3+0x12c>
     148:	ff800737          	lui	a4,0xff800
     14c:	177d                	addi	a4,a4,-1 # ff7fffff <__global_pointer$+0xdf7ff7ff>
     14e:	8ff9                	and	a5,a5,a4
     150:	810d                	srli	a0,a0,0x3
     152:	01d79713          	slli	a4,a5,0x1d
     156:	8f49                	or	a4,a4,a0
     158:	a331                	j	664 <__adddf3+0x5c4>
     15a:	7ff00693          	li	a3,2047
     15e:	06d29963          	bne	t0,a3,1d0 <__adddf3+0x130>
     162:	7ff00493          	li	s1,2047
     166:	bf4d                	j	118 <__adddf3+0x78>
     168:	7ff00713          	li	a4,2047
     16c:	fae486e3          	beq	s1,a4,118 <__adddf3+0x78>
     170:	03800713          	li	a4,56
     174:	06574263          	blt	a4,t0,1d8 <__adddf3+0x138>
     178:	00800737          	lui	a4,0x800
     17c:	8dd9                	or	a1,a1,a4
     17e:	8716                	mv	a4,t0
     180:	46fd                	li	a3,31
     182:	04e6ce63          	blt	a3,a4,1de <__adddf3+0x13e>
     186:	02000313          	li	t1,32
     18a:	40e30333          	sub	t1,t1,a4
     18e:	006596b3          	sll	a3,a1,t1
     192:	00e652b3          	srl	t0,a2,a4
     196:	00661333          	sll	t1,a2,t1
     19a:	0056e6b3          	or	a3,a3,t0
     19e:	00603333          	snez	t1,t1
     1a2:	0066e6b3          	or	a3,a3,t1
     1a6:	00e5d733          	srl	a4,a1,a4
     1aa:	9536                	add	a0,a0,a3
     1ac:	973e                	add	a4,a4,a5
     1ae:	00d536b3          	sltu	a3,a0,a3
     1b2:	00d707b3          	add	a5,a4,a3
     1b6:	00800737          	lui	a4,0x800
     1ba:	8f7d                	and	a4,a4,a5
     1bc:	df31                	beqz	a4,118 <__adddf3+0x78>
     1be:	0485                	addi	s1,s1,1
     1c0:	7ff00713          	li	a4,2047
     1c4:	16e49c63          	bne	s1,a4,33c <__adddf3+0x29c>
     1c8:	7ff00493          	li	s1,2047
     1cc:	4781                	li	a5,0
     1ce:	a299                	j	314 <__adddf3+0x274>
     1d0:	03800693          	li	a3,56
     1d4:	fae6d6e3          	bge	a3,a4,180 <__adddf3+0xe0>
     1d8:	4701                	li	a4,0
     1da:	4685                	li	a3,1
     1dc:	b7f9                	j	1aa <__adddf3+0x10a>
     1de:	fe070693          	addi	a3,a4,-32 # 7fffe0 <_data_lma+0x7fd01c>
     1e2:	02000293          	li	t0,32
     1e6:	00d5d6b3          	srl	a3,a1,a3
     1ea:	4301                	li	t1,0
     1ec:	00570863          	beq	a4,t0,1fc <__adddf3+0x15c>
     1f0:	04000313          	li	t1,64
     1f4:	40e30333          	sub	t1,t1,a4
     1f8:	00659333          	sll	t1,a1,t1
     1fc:	00c36333          	or	t1,t1,a2
     200:	00603333          	snez	t1,t1
     204:	0066e6b3          	or	a3,a3,t1
     208:	4701                	li	a4,0
     20a:	b745                	j	1aa <__adddf3+0x10a>
     20c:	0a028c63          	beqz	t0,2c4 <__adddf3+0x224>
     210:	409306b3          	sub	a3,t1,s1
     214:	e085                	bnez	s1,234 <__adddf3+0x194>
     216:	00a7e733          	or	a4,a5,a0
     21a:	46070e63          	beqz	a4,696 <__adddf3+0x5f6>
     21e:	fff68713          	addi	a4,a3,-1
     222:	ec070ee3          	beqz	a4,fe <__adddf3+0x5e>
     226:	7ff00293          	li	t0,2047
     22a:	04569f63          	bne	a3,t0,288 <__adddf3+0x1e8>
     22e:	87ae                	mv	a5,a1
     230:	8532                	mv	a0,a2
     232:	bf05                	j	162 <__adddf3+0xc2>
     234:	7ff00713          	li	a4,2047
     238:	fee30be3          	beq	t1,a4,22e <__adddf3+0x18e>
     23c:	03800713          	li	a4,56
     240:	04d74863          	blt	a4,a3,290 <__adddf3+0x1f0>
     244:	00800737          	lui	a4,0x800
     248:	8fd9                	or	a5,a5,a4
     24a:	8736                	mv	a4,a3
     24c:	46fd                	li	a3,31
     24e:	04e6c463          	blt	a3,a4,296 <__adddf3+0x1f6>
     252:	02000293          	li	t0,32
     256:	40e282b3          	sub	t0,t0,a4
     25a:	005796b3          	sll	a3,a5,t0
     25e:	00e553b3          	srl	t2,a0,a4
     262:	005512b3          	sll	t0,a0,t0
     266:	0076e6b3          	or	a3,a3,t2
     26a:	005032b3          	snez	t0,t0
     26e:	0056e6b3          	or	a3,a3,t0
     272:	00e7d733          	srl	a4,a5,a4
     276:	9636                	add	a2,a2,a3
     278:	972e                	add	a4,a4,a1
     27a:	00d636b3          	sltu	a3,a2,a3
     27e:	8532                	mv	a0,a2
     280:	00d707b3          	add	a5,a4,a3
     284:	849a                	mv	s1,t1
     286:	bf05                	j	1b6 <__adddf3+0x116>
     288:	03800693          	li	a3,56
     28c:	fce6d0e3          	bge	a3,a4,24c <__adddf3+0x1ac>
     290:	4701                	li	a4,0
     292:	4685                	li	a3,1
     294:	b7cd                	j	276 <__adddf3+0x1d6>
     296:	fe070693          	addi	a3,a4,-32 # 7fffe0 <_data_lma+0x7fd01c>
     29a:	02000393          	li	t2,32
     29e:	00d7d6b3          	srl	a3,a5,a3
     2a2:	4281                	li	t0,0
     2a4:	00770863          	beq	a4,t2,2b4 <__adddf3+0x214>
     2a8:	04000293          	li	t0,64
     2ac:	40e282b3          	sub	t0,t0,a4
     2b0:	005792b3          	sll	t0,a5,t0
     2b4:	00a2e2b3          	or	t0,t0,a0
     2b8:	005032b3          	snez	t0,t0
     2bc:	0056e6b3          	or	a3,a3,t0
     2c0:	4701                	li	a4,0
     2c2:	bf55                	j	276 <__adddf3+0x1d6>
     2c4:	00148713          	addi	a4,s1,1
     2c8:	7fe77693          	andi	a3,a4,2046
     2cc:	e6b1                	bnez	a3,318 <__adddf3+0x278>
     2ce:	00a7e733          	or	a4,a5,a0
     2d2:	e885                	bnez	s1,302 <__adddf3+0x262>
     2d4:	3c070563          	beqz	a4,69e <__adddf3+0x5fe>
     2d8:	00c5e733          	or	a4,a1,a2
     2dc:	e2070ee3          	beqz	a4,118 <__adddf3+0x78>
     2e0:	962a                	add	a2,a2,a0
     2e2:	00a63733          	sltu	a4,a2,a0
     2e6:	95be                	add	a1,a1,a5
     2e8:	00e587b3          	add	a5,a1,a4
     2ec:	00800737          	lui	a4,0x800
     2f0:	8f7d                	and	a4,a4,a5
     2f2:	8532                	mv	a0,a2
     2f4:	e20702e3          	beqz	a4,118 <__adddf3+0x78>
     2f8:	ff800737          	lui	a4,0xff800
     2fc:	177d                	addi	a4,a4,-1 # ff7fffff <__global_pointer$+0xdf7ff7ff>
     2fe:	8ff9                	and	a5,a5,a4
     300:	bd19                	j	116 <__adddf3+0x76>
     302:	d715                	beqz	a4,22e <__adddf3+0x18e>
     304:	8e4d                	or	a2,a2,a1
     306:	e4060ee3          	beqz	a2,162 <__adddf3+0xc2>
     30a:	4401                	li	s0,0
     30c:	7ff00493          	li	s1,2047
     310:	000807b7          	lui	a5,0x80
     314:	4701                	li	a4,0
     316:	ae81                	j	666 <__adddf3+0x5c6>
     318:	7ff00693          	li	a3,2047
     31c:	ead706e3          	beq	a4,a3,1c8 <__adddf3+0x128>
     320:	962a                	add	a2,a2,a0
     322:	00a63533          	sltu	a0,a2,a0
     326:	95be                	add	a1,a1,a5
     328:	95aa                	add	a1,a1,a0
     32a:	01f59513          	slli	a0,a1,0x1f
     32e:	8205                	srli	a2,a2,0x1
     330:	8d51                	or	a0,a0,a2
     332:	0015d793          	srli	a5,a1,0x1
     336:	84ba                	mv	s1,a4
     338:	b3c5                	j	118 <__adddf3+0x78>
     33a:	4489                	li	s1,2
     33c:	ff800737          	lui	a4,0xff800
     340:	177d                	addi	a4,a4,-1 # ff7fffff <__global_pointer$+0xdf7ff7ff>
     342:	8ff9                	and	a5,a5,a4
     344:	00155713          	srli	a4,a0,0x1
     348:	8905                	andi	a0,a0,1
     34a:	8f49                	or	a4,a4,a0
     34c:	01f79513          	slli	a0,a5,0x1f
     350:	8d59                	or	a0,a0,a4
     352:	8385                	srli	a5,a5,0x1
     354:	b3d1                	j	118 <__adddf3+0x78>
     356:	0c505d63          	blez	t0,430 <__adddf3+0x390>
     35a:	02031f63          	bnez	t1,398 <__adddf3+0x2f8>
     35e:	00c5e733          	or	a4,a1,a2
     362:	34070163          	beqz	a4,6a4 <__adddf3+0x604>
     366:	fff28713          	addi	a4,t0,-1
     36a:	ef01                	bnez	a4,382 <__adddf3+0x2e2>
     36c:	40c50633          	sub	a2,a0,a2
     370:	00c53733          	sltu	a4,a0,a2
     374:	40b785b3          	sub	a1,a5,a1
     378:	8532                	mv	a0,a2
     37a:	40e587b3          	sub	a5,a1,a4
     37e:	4485                	li	s1,1
     380:	a0b5                	j	3ec <__adddf3+0x34c>
     382:	7ff00693          	li	a3,2047
     386:	dcd28ee3          	beq	t0,a3,162 <__adddf3+0xc2>
     38a:	03800693          	li	a3,56
     38e:	02e6d163          	bge	a3,a4,3b0 <__adddf3+0x310>
     392:	4701                	li	a4,0
     394:	4685                	li	a3,1
     396:	a091                	j	3da <__adddf3+0x33a>
     398:	7ff00713          	li	a4,2047
     39c:	d6e48ee3          	beq	s1,a4,118 <__adddf3+0x78>
     3a0:	03800713          	li	a4,56
     3a4:	fe5747e3          	blt	a4,t0,392 <__adddf3+0x2f2>
     3a8:	00800737          	lui	a4,0x800
     3ac:	8dd9                	or	a1,a1,a4
     3ae:	8716                	mv	a4,t0
     3b0:	46fd                	li	a3,31
     3b2:	04e6c863          	blt	a3,a4,402 <__adddf3+0x362>
     3b6:	02000313          	li	t1,32
     3ba:	40e30333          	sub	t1,t1,a4
     3be:	006596b3          	sll	a3,a1,t1
     3c2:	00e652b3          	srl	t0,a2,a4
     3c6:	00661333          	sll	t1,a2,t1
     3ca:	0056e6b3          	or	a3,a3,t0
     3ce:	00603333          	snez	t1,t1
     3d2:	0066e6b3          	or	a3,a3,t1
     3d6:	00e5d733          	srl	a4,a1,a4
     3da:	40d506b3          	sub	a3,a0,a3
     3de:	00d53633          	sltu	a2,a0,a3
     3e2:	40e78733          	sub	a4,a5,a4
     3e6:	8536                	mv	a0,a3
     3e8:	40c707b3          	sub	a5,a4,a2
     3ec:	00800337          	lui	t1,0x800
     3f0:	0067f733          	and	a4,a5,t1
     3f4:	d20702e3          	beqz	a4,118 <__adddf3+0x78>
     3f8:	137d                	addi	t1,t1,-1 # 7fffff <_data_lma+0x7fd03b>
     3fa:	0067f333          	and	t1,a5,t1
     3fe:	82aa                	mv	t0,a0
     400:	a24d                	j	5a2 <__adddf3+0x502>
     402:	fe070693          	addi	a3,a4,-32 # 7fffe0 <_data_lma+0x7fd01c>
     406:	02000293          	li	t0,32
     40a:	00d5d6b3          	srl	a3,a1,a3
     40e:	4301                	li	t1,0
     410:	00570863          	beq	a4,t0,420 <__adddf3+0x380>
     414:	04000313          	li	t1,64
     418:	40e30333          	sub	t1,t1,a4
     41c:	00659333          	sll	t1,a1,t1
     420:	00c36333          	or	t1,t1,a2
     424:	00603333          	snez	t1,t1
     428:	0066e6b3          	or	a3,a3,t1
     42c:	4701                	li	a4,0
     42e:	b775                	j	3da <__adddf3+0x33a>
     430:	0c028863          	beqz	t0,500 <__adddf3+0x460>
     434:	409302b3          	sub	t0,t1,s1
     438:	e895                	bnez	s1,46c <__adddf3+0x3cc>
     43a:	00a7e733          	or	a4,a5,a0
     43e:	26070563          	beqz	a4,6a8 <__adddf3+0x608>
     442:	fff28713          	addi	a4,t0,-1
     446:	eb11                	bnez	a4,45a <__adddf3+0x3ba>
     448:	40a60533          	sub	a0,a2,a0
     44c:	8d9d                	sub	a1,a1,a5
     44e:	00a63633          	sltu	a2,a2,a0
     452:	40c587b3          	sub	a5,a1,a2
     456:	8436                	mv	s0,a3
     458:	b71d                	j	37e <__adddf3+0x2de>
     45a:	7ff00393          	li	t2,2047
     45e:	06729363          	bne	t0,t2,4c4 <__adddf3+0x424>
     462:	87ae                	mv	a5,a1
     464:	8532                	mv	a0,a2
     466:	7ff00493          	li	s1,2047
     46a:	a855                	j	51e <__adddf3+0x47e>
     46c:	7ff00713          	li	a4,2047
     470:	fee309e3          	beq	t1,a4,462 <__adddf3+0x3c2>
     474:	03800713          	li	a4,56
     478:	04574a63          	blt	a4,t0,4cc <__adddf3+0x42c>
     47c:	00800737          	lui	a4,0x800
     480:	8fd9                	or	a5,a5,a4
     482:	8716                	mv	a4,t0
     484:	42fd                	li	t0,31
     486:	04e2c663          	blt	t0,a4,4d2 <__adddf3+0x432>
     48a:	02000393          	li	t2,32
     48e:	40e383b3          	sub	t2,t2,a4
     492:	00e55433          	srl	s0,a0,a4
     496:	007792b3          	sll	t0,a5,t2
     49a:	007513b3          	sll	t2,a0,t2
     49e:	0082e2b3          	or	t0,t0,s0
     4a2:	007033b3          	snez	t2,t2
     4a6:	0072e533          	or	a0,t0,t2
     4aa:	00e7d733          	srl	a4,a5,a4
     4ae:	40a60533          	sub	a0,a2,a0
     4b2:	40e58733          	sub	a4,a1,a4
     4b6:	00a63633          	sltu	a2,a2,a0
     4ba:	40c707b3          	sub	a5,a4,a2
     4be:	849a                	mv	s1,t1
     4c0:	8436                	mv	s0,a3
     4c2:	b72d                	j	3ec <__adddf3+0x34c>
     4c4:	03800293          	li	t0,56
     4c8:	fae2dee3          	bge	t0,a4,484 <__adddf3+0x3e4>
     4cc:	4701                	li	a4,0
     4ce:	4505                	li	a0,1
     4d0:	bff9                	j	4ae <__adddf3+0x40e>
     4d2:	fe070293          	addi	t0,a4,-32 # 7fffe0 <_data_lma+0x7fd01c>
     4d6:	02000413          	li	s0,32
     4da:	0057d2b3          	srl	t0,a5,t0
     4de:	4381                	li	t2,0
     4e0:	00870863          	beq	a4,s0,4f0 <__adddf3+0x450>
     4e4:	04000393          	li	t2,64
     4e8:	40e383b3          	sub	t2,t2,a4
     4ec:	007793b3          	sll	t2,a5,t2
     4f0:	00a3e3b3          	or	t2,t2,a0
     4f4:	007033b3          	snez	t2,t2
     4f8:	0072e533          	or	a0,t0,t2
     4fc:	4701                	li	a4,0
     4fe:	bf45                	j	4ae <__adddf3+0x40e>
     500:	00148713          	addi	a4,s1,1
     504:	7fe77713          	andi	a4,a4,2046
     508:	e72d                	bnez	a4,572 <__adddf3+0x4d2>
     50a:	00a7e333          	or	t1,a5,a0
     50e:	00c5e733          	or	a4,a1,a2
     512:	e4a9                	bnez	s1,55c <__adddf3+0x4bc>
     514:	00031763          	bnez	t1,522 <__adddf3+0x482>
     518:	c76d                	beqz	a4,602 <__adddf3+0x562>
     51a:	87ae                	mv	a5,a1
     51c:	8532                	mv	a0,a2
     51e:	8436                	mv	s0,a3
     520:	bee5                	j	118 <__adddf3+0x78>
     522:	be070be3          	beqz	a4,118 <__adddf3+0x78>
     526:	40c502b3          	sub	t0,a0,a2
     52a:	00553733          	sltu	a4,a0,t0
     52e:	40b78333          	sub	t1,a5,a1
     532:	40e30333          	sub	t1,t1,a4
     536:	00800737          	lui	a4,0x800
     53a:	00e37733          	and	a4,t1,a4
     53e:	cb09                	beqz	a4,550 <__adddf3+0x4b0>
     540:	40a60533          	sub	a0,a2,a0
     544:	8d9d                	sub	a1,a1,a5
     546:	00a63633          	sltu	a2,a2,a0
     54a:	40c587b3          	sub	a5,a1,a2
     54e:	bfc1                	j	51e <__adddf3+0x47e>
     550:	0062e733          	or	a4,t0,t1
     554:	c75d                	beqz	a4,602 <__adddf3+0x562>
     556:	879a                	mv	a5,t1
     558:	8516                	mv	a0,t0
     55a:	be7d                	j	118 <__adddf3+0x78>
     55c:	00031863          	bnez	t1,56c <__adddf3+0x4cc>
     560:	16070863          	beqz	a4,6d0 <__adddf3+0x630>
     564:	87ae                	mv	a5,a1
     566:	8532                	mv	a0,a2
     568:	8436                	mv	s0,a3
     56a:	bee5                	j	162 <__adddf3+0xc2>
     56c:	be070be3          	beqz	a4,162 <__adddf3+0xc2>
     570:	bb69                	j	30a <__adddf3+0x26a>
     572:	40c50733          	sub	a4,a0,a2
     576:	00e533b3          	sltu	t2,a0,a4
     57a:	40b78333          	sub	t1,a5,a1
     57e:	40730333          	sub	t1,t1,t2
     582:	008003b7          	lui	t2,0x800
     586:	007373b3          	and	t2,t1,t2
     58a:	82ba                	mv	t0,a4
     58c:	06038763          	beqz	t2,5fa <__adddf3+0x55a>
     590:	40a60533          	sub	a0,a2,a0
     594:	8d9d                	sub	a1,a1,a5
     596:	00a63633          	sltu	a2,a2,a0
     59a:	82aa                	mv	t0,a0
     59c:	40c58333          	sub	t1,a1,a2
     5a0:	8436                	mv	s0,a3
     5a2:	06030263          	beqz	t1,606 <__adddf3+0x566>
     5a6:	851a                	mv	a0,t1
     5a8:	c216                	sw	t0,4(sp)
     5aa:	c01a                	sw	t1,0(sp)
     5ac:	6df010ef          	jal	248a <__clzsi2>
     5b0:	4302                	lw	t1,0(sp)
     5b2:	4292                	lw	t0,4(sp)
     5b4:	ff850793          	addi	a5,a0,-8
     5b8:	02000713          	li	a4,32
     5bc:	8f1d                	sub	a4,a4,a5
     5be:	00f31333          	sll	t1,t1,a5
     5c2:	00e2d733          	srl	a4,t0,a4
     5c6:	00676733          	or	a4,a4,t1
     5ca:	00f29333          	sll	t1,t0,a5
     5ce:	0a97cd63          	blt	a5,s1,688 <__adddf3+0x5e8>
     5d2:	8f85                	sub	a5,a5,s1
     5d4:	00178613          	addi	a2,a5,1 # 80001 <_data_lma+0x7d03d>
     5d8:	02000693          	li	a3,32
     5dc:	8e91                	sub	a3,a3,a2
     5de:	00d71533          	sll	a0,a4,a3
     5e2:	00c357b3          	srl	a5,t1,a2
     5e6:	00d316b3          	sll	a3,t1,a3
     5ea:	8d5d                	or	a0,a0,a5
     5ec:	00d036b3          	snez	a3,a3
     5f0:	8d55                	or	a0,a0,a3
     5f2:	00c757b3          	srl	a5,a4,a2
     5f6:	4481                	li	s1,0
     5f8:	b605                	j	118 <__adddf3+0x78>
     5fa:	00676733          	or	a4,a4,t1
     5fe:	f355                	bnez	a4,5a2 <__adddf3+0x502>
     600:	4481                	li	s1,0
     602:	4781                	li	a5,0
     604:	a0e1                	j	6cc <__adddf3+0x62c>
     606:	8516                	mv	a0,t0
     608:	c21a                	sw	t1,4(sp)
     60a:	c016                	sw	t0,0(sp)
     60c:	67f010ef          	jal	248a <__clzsi2>
     610:	01850793          	addi	a5,a0,24
     614:	46fd                	li	a3,31
     616:	4282                	lw	t0,0(sp)
     618:	4312                	lw	t1,4(sp)
     61a:	f8f6dfe3          	bge	a3,a5,5b8 <__adddf3+0x518>
     61e:	1561                	addi	a0,a0,-8
     620:	00a29733          	sll	a4,t0,a0
     624:	0297c963          	blt	a5,s1,656 <__adddf3+0x5b6>
     628:	8f85                	sub	a5,a5,s1
     62a:	00178613          	addi	a2,a5,1
     62e:	fac6d5e3          	bge	a3,a2,5d8 <__adddf3+0x538>
     632:	1785                	addi	a5,a5,-31
     634:	02000693          	li	a3,32
     638:	00f757b3          	srl	a5,a4,a5
     63c:	4501                	li	a0,0
     63e:	00d60763          	beq	a2,a3,64c <__adddf3+0x5ac>
     642:	04000513          	li	a0,64
     646:	8d11                	sub	a0,a0,a2
     648:	00a71533          	sll	a0,a4,a0
     64c:	00a03533          	snez	a0,a0
     650:	8d5d                	or	a0,a0,a5
     652:	4781                	li	a5,0
     654:	b74d                	j	5f6 <__adddf3+0x556>
     656:	8c9d                	sub	s1,s1,a5
     658:	ff8007b7          	lui	a5,0xff800
     65c:	17fd                	addi	a5,a5,-1 # ff7fffff <__global_pointer$+0xdf7ff7ff>
     65e:	8ff9                	and	a5,a5,a4
     660:	01d79713          	slli	a4,a5,0x1d
     664:	838d                	srli	a5,a5,0x3
     666:	04d2                	slli	s1,s1,0x14
     668:	7ff006b7          	lui	a3,0x7ff00
     66c:	07b2                	slli	a5,a5,0xc
     66e:	83b1                	srli	a5,a5,0xc
     670:	8cf5                	and	s1,s1,a3
     672:	8cdd                	or	s1,s1,a5
     674:	047e                	slli	s0,s0,0x1f
     676:	0084e7b3          	or	a5,s1,s0
     67a:	40c2                	lw	ra,16(sp)
     67c:	4432                	lw	s0,12(sp)
     67e:	44a2                	lw	s1,8(sp)
     680:	853a                	mv	a0,a4
     682:	85be                	mv	a1,a5
     684:	0151                	addi	sp,sp,20
     686:	8082                	ret
     688:	8c9d                	sub	s1,s1,a5
     68a:	ff8007b7          	lui	a5,0xff800
     68e:	17fd                	addi	a5,a5,-1 # ff7fffff <__global_pointer$+0xdf7ff7ff>
     690:	8ff9                	and	a5,a5,a4
     692:	851a                	mv	a0,t1
     694:	b451                	j	118 <__adddf3+0x78>
     696:	87ae                	mv	a5,a1
     698:	8532                	mv	a0,a2
     69a:	84b6                	mv	s1,a3
     69c:	bcb5                	j	118 <__adddf3+0x78>
     69e:	87ae                	mv	a5,a1
     6a0:	8532                	mv	a0,a2
     6a2:	bc9d                	j	118 <__adddf3+0x78>
     6a4:	8496                	mv	s1,t0
     6a6:	bc8d                	j	118 <__adddf3+0x78>
     6a8:	87ae                	mv	a5,a1
     6aa:	8532                	mv	a0,a2
     6ac:	8496                	mv	s1,t0
     6ae:	bd85                	j	51e <__adddf3+0x47e>
     6b0:	01d79693          	slli	a3,a5,0x1d
     6b4:	810d                	srli	a0,a0,0x3
     6b6:	7ff00613          	li	a2,2047
     6ba:	8ec9                	or	a3,a3,a0
     6bc:	838d                	srli	a5,a5,0x3
     6be:	00c49f63          	bne	s1,a2,6dc <__adddf3+0x63c>
     6c2:	8edd                	or	a3,a3,a5
     6c4:	000807b7          	lui	a5,0x80
     6c8:	b00680e3          	beqz	a3,1c8 <__adddf3+0x128>
     6cc:	4401                	li	s0,0
     6ce:	bf61                	j	666 <__adddf3+0x5c6>
     6d0:	4401                	li	s0,0
     6d2:	7ff00493          	li	s1,2047
     6d6:	000807b7          	lui	a5,0x80
     6da:	b771                	j	666 <__adddf3+0x5c6>
     6dc:	8736                	mv	a4,a3
     6de:	b761                	j	666 <__adddf3+0x5c6>

000006e0 <__gedf2>:
     6e0:	1161                	addi	sp,sp,-8
     6e2:	0145d293          	srli	t0,a1,0x14
     6e6:	001007b7          	lui	a5,0x100
     6ea:	17fd                	addi	a5,a5,-1 # fffff <_data_lma+0xfd03b>
     6ec:	c026                	sw	s1,0(sp)
     6ee:	872a                	mv	a4,a0
     6f0:	83aa                	mv	t2,a0
     6f2:	c222                	sw	s0,4(sp)
     6f4:	0146d513          	srli	a0,a3,0x14
     6f8:	7ff2f293          	andi	t0,t0,2047
     6fc:	7ff00493          	li	s1,2047
     700:	00b7f333          	and	t1,a5,a1
     704:	7ff57513          	andi	a0,a0,2047
     708:	8ff5                	and	a5,a5,a3
     70a:	81fd                	srli	a1,a1,0x1f
     70c:	82fd                	srli	a3,a3,0x1f
     70e:	02929663          	bne	t0,s1,73a <__gedf2+0x5a>
     712:	00e36333          	or	t1,t1,a4
     716:	08031863          	bnez	t1,7a6 <__gedf2+0xc6>
     71a:	00550663          	beq	a0,t0,726 <__gedf2+0x46>
     71e:	4505                	li	a0,1
     720:	c989                	beqz	a1,732 <__gedf2+0x52>
     722:	557d                	li	a0,-1
     724:	a039                	j	732 <__gedf2+0x52>
     726:	8e5d                	or	a2,a2,a5
     728:	5579                	li	a0,-2
     72a:	e601                	bnez	a2,732 <__gedf2+0x52>
     72c:	4501                	li	a0,0
     72e:	fed598e3          	bne	a1,a3,71e <__gedf2+0x3e>
     732:	4412                	lw	s0,4(sp)
     734:	4482                	lw	s1,0(sp)
     736:	0121                	addi	sp,sp,8
     738:	8082                	ret
     73a:	02951563          	bne	a0,s1,764 <__gedf2+0x84>
     73e:	8e5d                	or	a2,a2,a5
     740:	5579                	li	a0,-2
     742:	fa65                	bnez	a2,732 <__gedf2+0x52>
     744:	00028863          	beqz	t0,754 <__gedf2+0x74>
     748:	fcd59be3          	bne	a1,a3,71e <__gedf2+0x3e>
     74c:	557d                	li	a0,-1
     74e:	d1f5                	beqz	a1,732 <__gedf2+0x52>
     750:	852e                	mv	a0,a1
     752:	b7c5                	j	732 <__gedf2+0x52>
     754:	00e36333          	or	t1,t1,a4
     758:	fe0318e3          	bnez	t1,748 <__gedf2+0x68>
     75c:	557d                	li	a0,-1
     75e:	daf1                	beqz	a3,732 <__gedf2+0x52>
     760:	8536                	mv	a0,a3
     762:	bfc1                	j	732 <__gedf2+0x52>
     764:	8432                	mv	s0,a2
     766:	02028363          	beqz	t0,78c <__gedf2+0xac>
     76a:	d955                	beqz	a0,71e <__gedf2+0x3e>
     76c:	fad599e3          	bne	a1,a3,71e <__gedf2+0x3e>
     770:	fa5547e3          	blt	a0,t0,71e <__gedf2+0x3e>
     774:	fca2cce3          	blt	t0,a0,74c <__gedf2+0x6c>
     778:	fa67e3e3          	bltu	a5,t1,71e <__gedf2+0x3e>
     77c:	fcf318e3          	bne	t1,a5,74c <__gedf2+0x6c>
     780:	f8746fe3          	bltu	s0,t2,71e <__gedf2+0x3e>
     784:	4501                	li	a0,0
     786:	fa83f6e3          	bgeu	t2,s0,732 <__gedf2+0x52>
     78a:	b7c9                	j	74c <__gedf2+0x6c>
     78c:	00e36733          	or	a4,t1,a4
     790:	c119                	beqz	a0,796 <__gedf2+0xb6>
     792:	d769                	beqz	a4,75c <__gedf2+0x7c>
     794:	bf55                	j	748 <__gedf2+0x68>
     796:	8e5d                	or	a2,a2,a5
     798:	c609                	beqz	a2,7a2 <__gedf2+0xc2>
     79a:	d369                	beqz	a4,75c <__gedf2+0x7c>
     79c:	fcd58ee3          	beq	a1,a3,778 <__gedf2+0x98>
     7a0:	bfbd                	j	71e <__gedf2+0x3e>
     7a2:	db41                	beqz	a4,732 <__gedf2+0x52>
     7a4:	bfad                	j	71e <__gedf2+0x3e>
     7a6:	5579                	li	a0,-2
     7a8:	b769                	j	732 <__gedf2+0x52>

000007aa <__ledf2>:
     7aa:	1161                	addi	sp,sp,-8
     7ac:	0145d293          	srli	t0,a1,0x14
     7b0:	001007b7          	lui	a5,0x100
     7b4:	17fd                	addi	a5,a5,-1 # fffff <_data_lma+0xfd03b>
     7b6:	c026                	sw	s1,0(sp)
     7b8:	872a                	mv	a4,a0
     7ba:	83aa                	mv	t2,a0
     7bc:	c222                	sw	s0,4(sp)
     7be:	0146d513          	srli	a0,a3,0x14
     7c2:	7ff2f293          	andi	t0,t0,2047
     7c6:	7ff00493          	li	s1,2047
     7ca:	00b7f333          	and	t1,a5,a1
     7ce:	7ff57513          	andi	a0,a0,2047
     7d2:	8ff5                	and	a5,a5,a3
     7d4:	81fd                	srli	a1,a1,0x1f
     7d6:	82fd                	srli	a3,a3,0x1f
     7d8:	02929663          	bne	t0,s1,804 <__ledf2+0x5a>
     7dc:	00e36333          	or	t1,t1,a4
     7e0:	08031863          	bnez	t1,870 <__ledf2+0xc6>
     7e4:	00550663          	beq	a0,t0,7f0 <__ledf2+0x46>
     7e8:	4505                	li	a0,1
     7ea:	c989                	beqz	a1,7fc <__ledf2+0x52>
     7ec:	557d                	li	a0,-1
     7ee:	a039                	j	7fc <__ledf2+0x52>
     7f0:	8e5d                	or	a2,a2,a5
     7f2:	4509                	li	a0,2
     7f4:	e601                	bnez	a2,7fc <__ledf2+0x52>
     7f6:	4501                	li	a0,0
     7f8:	fed598e3          	bne	a1,a3,7e8 <__ledf2+0x3e>
     7fc:	4412                	lw	s0,4(sp)
     7fe:	4482                	lw	s1,0(sp)
     800:	0121                	addi	sp,sp,8
     802:	8082                	ret
     804:	02951563          	bne	a0,s1,82e <__ledf2+0x84>
     808:	8e5d                	or	a2,a2,a5
     80a:	4509                	li	a0,2
     80c:	fa65                	bnez	a2,7fc <__ledf2+0x52>
     80e:	00028863          	beqz	t0,81e <__ledf2+0x74>
     812:	fcd59be3          	bne	a1,a3,7e8 <__ledf2+0x3e>
     816:	557d                	li	a0,-1
     818:	d1f5                	beqz	a1,7fc <__ledf2+0x52>
     81a:	852e                	mv	a0,a1
     81c:	b7c5                	j	7fc <__ledf2+0x52>
     81e:	00e36333          	or	t1,t1,a4
     822:	fe0318e3          	bnez	t1,812 <__ledf2+0x68>
     826:	557d                	li	a0,-1
     828:	daf1                	beqz	a3,7fc <__ledf2+0x52>
     82a:	8536                	mv	a0,a3
     82c:	bfc1                	j	7fc <__ledf2+0x52>
     82e:	8432                	mv	s0,a2
     830:	02028363          	beqz	t0,856 <__ledf2+0xac>
     834:	d955                	beqz	a0,7e8 <__ledf2+0x3e>
     836:	fad599e3          	bne	a1,a3,7e8 <__ledf2+0x3e>
     83a:	fa5547e3          	blt	a0,t0,7e8 <__ledf2+0x3e>
     83e:	fca2cce3          	blt	t0,a0,816 <__ledf2+0x6c>
     842:	fa67e3e3          	bltu	a5,t1,7e8 <__ledf2+0x3e>
     846:	fcf318e3          	bne	t1,a5,816 <__ledf2+0x6c>
     84a:	f8746fe3          	bltu	s0,t2,7e8 <__ledf2+0x3e>
     84e:	4501                	li	a0,0
     850:	fa83f6e3          	bgeu	t2,s0,7fc <__ledf2+0x52>
     854:	b7c9                	j	816 <__ledf2+0x6c>
     856:	00e36733          	or	a4,t1,a4
     85a:	c119                	beqz	a0,860 <__ledf2+0xb6>
     85c:	d769                	beqz	a4,826 <__ledf2+0x7c>
     85e:	bf55                	j	812 <__ledf2+0x68>
     860:	8e5d                	or	a2,a2,a5
     862:	c609                	beqz	a2,86c <__ledf2+0xc2>
     864:	d369                	beqz	a4,826 <__ledf2+0x7c>
     866:	fcd58ee3          	beq	a1,a3,842 <__ledf2+0x98>
     86a:	bfbd                	j	7e8 <__ledf2+0x3e>
     86c:	db41                	beqz	a4,7fc <__ledf2+0x52>
     86e:	bfad                	j	7e8 <__ledf2+0x3e>
     870:	4509                	li	a0,2
     872:	b769                	j	7fc <__ledf2+0x52>

00000874 <__muldf3>:
     874:	fc410113          	addi	sp,sp,-60
     878:	00c59793          	slli	a5,a1,0xc
     87c:	d826                	sw	s1,48(sp)
     87e:	0145d313          	srli	t1,a1,0x14
     882:	00c7d493          	srli	s1,a5,0xc
     886:	01f5d793          	srli	a5,a1,0x1f
     88a:	da22                	sw	s0,52(sp)
     88c:	dc06                	sw	ra,56(sp)
     88e:	7ff37313          	andi	t1,t1,2047
     892:	c43e                	sw	a5,8(sp)
     894:	8436                	mv	s0,a3
     896:	2c030363          	beqz	t1,b5c <__muldf3+0x2e8>
     89a:	7ff00793          	li	a5,2047
     89e:	32f30063          	beq	t1,a5,bbe <__muldf3+0x34a>
     8a2:	00349693          	slli	a3,s1,0x3
     8a6:	01d55793          	srli	a5,a0,0x1d
     8aa:	8fd5                	or	a5,a5,a3
     8ac:	008006b7          	lui	a3,0x800
     8b0:	00d7e4b3          	or	s1,a5,a3
     8b4:	00351593          	slli	a1,a0,0x3
     8b8:	c0130313          	addi	t1,t1,-1023
     8bc:	4281                	li	t0,0
     8be:	01445713          	srli	a4,s0,0x14
     8c2:	00c41793          	slli	a5,s0,0xc
     8c6:	7ff77713          	andi	a4,a4,2047
     8ca:	83b1                	srli	a5,a5,0xc
     8cc:	807d                	srli	s0,s0,0x1f
     8ce:	30070963          	beqz	a4,be0 <__muldf3+0x36c>
     8d2:	7ff00693          	li	a3,2047
     8d6:	38d70263          	beq	a4,a3,c5a <__muldf3+0x3e6>
     8da:	01d65693          	srli	a3,a2,0x1d
     8de:	078e                	slli	a5,a5,0x3
     8e0:	8edd                	or	a3,a3,a5
     8e2:	008007b7          	lui	a5,0x800
     8e6:	8fd5                	or	a5,a5,a3
     8e8:	00361693          	slli	a3,a2,0x3
     8ec:	c0170613          	addi	a2,a4,-1023 # 7ffc01 <_data_lma+0x7fcc3d>
     8f0:	4701                	li	a4,0
     8f2:	4522                	lw	a0,8(sp)
     8f4:	961a                	add	a2,a2,t1
     8f6:	d232                	sw	a2,36(sp)
     8f8:	0605                	addi	a2,a2,1
     8fa:	8d21                	xor	a0,a0,s0
     8fc:	c232                	sw	a2,4(sp)
     8fe:	00229613          	slli	a2,t0,0x2
     902:	c02a                	sw	a0,0(sp)
     904:	8e59                	or	a2,a2,a4
     906:	4529                	li	a0,10
     908:	3ac54563          	blt	a0,a2,cb2 <__muldf3+0x43e>
     90c:	4509                	li	a0,2
     90e:	36c54763          	blt	a0,a2,c7c <__muldf3+0x408>
     912:	167d                	addi	a2,a2,-1
     914:	4505                	li	a0,1
     916:	38c57263          	bgeu	a0,a2,c9a <__muldf3+0x426>
     91a:	0105d713          	srli	a4,a1,0x10
     91e:	c43a                	sw	a4,8(sp)
     920:	62c1                	lui	t0,0x10
     922:	0106d713          	srli	a4,a3,0x10
     926:	c63a                	sw	a4,12(sp)
     928:	fff28713          	addi	a4,t0,-1 # ffff <_data_lma+0xd03b>
     92c:	00e5f633          	and	a2,a1,a4
     930:	8ef9                	and	a3,a3,a4
     932:	ca32                	sw	a2,20(sp)
     934:	8532                	mv	a0,a2
     936:	cc36                	sw	a3,24(sp)
     938:	85b6                	mv	a1,a3
     93a:	2bb010ef          	jal	23f4 <__mulsi3>
     93e:	83aa                	mv	t2,a0
     940:	45b2                	lw	a1,12(sp)
     942:	4552                	lw	a0,20(sp)
     944:	2b1010ef          	jal	23f4 <__mulsi3>
     948:	832a                	mv	t1,a0
     94a:	45e2                	lw	a1,24(sp)
     94c:	4522                	lw	a0,8(sp)
     94e:	2a7010ef          	jal	23f4 <__mulsi3>
     952:	842a                	mv	s0,a0
     954:	45b2                	lw	a1,12(sp)
     956:	4522                	lw	a0,8(sp)
     958:	29d010ef          	jal	23f4 <__mulsi3>
     95c:	0103d693          	srli	a3,t2,0x10
     960:	9322                	add	t1,t1,s0
     962:	d02a                	sw	a0,32(sp)
     964:	9336                	add	t1,t1,a3
     966:	00837563          	bgeu	t1,s0,970 <__muldf3+0xfc>
     96a:	005506b3          	add	a3,a0,t0
     96e:	d036                	sw	a3,32(sp)
     970:	01035293          	srli	t0,t1,0x10
     974:	00e37333          	and	t1,t1,a4
     978:	0342                	slli	t1,t1,0x10
     97a:	00e3f6b3          	and	a3,t2,a4
     97e:	969a                	add	a3,a3,t1
     980:	d436                	sw	a3,40(sp)
     982:	0107d693          	srli	a3,a5,0x10
     986:	8ff9                	and	a5,a5,a4
     988:	4552                	lw	a0,20(sp)
     98a:	c836                	sw	a3,16(sp)
     98c:	ce3e                	sw	a5,28(sp)
     98e:	85be                	mv	a1,a5
     990:	265010ef          	jal	23f4 <__mulsi3>
     994:	872a                	mv	a4,a0
     996:	45c2                	lw	a1,16(sp)
     998:	4552                	lw	a0,20(sp)
     99a:	25b010ef          	jal	23f4 <__mulsi3>
     99e:	87aa                	mv	a5,a0
     9a0:	45f2                	lw	a1,28(sp)
     9a2:	4522                	lw	a0,8(sp)
     9a4:	251010ef          	jal	23f4 <__mulsi3>
     9a8:	832a                	mv	t1,a0
     9aa:	45c2                	lw	a1,16(sp)
     9ac:	4522                	lw	a0,8(sp)
     9ae:	247010ef          	jal	23f4 <__mulsi3>
     9b2:	01075693          	srli	a3,a4,0x10
     9b6:	979a                	add	a5,a5,t1
     9b8:	96be                	add	a3,a3,a5
     9ba:	0066f463          	bgeu	a3,t1,9c2 <__muldf3+0x14e>
     9be:	67c1                	lui	a5,0x10
     9c0:	953e                	add	a0,a0,a5
     9c2:	0106d793          	srli	a5,a3,0x10
     9c6:	97aa                	add	a5,a5,a0
     9c8:	6341                	lui	t1,0x10
     9ca:	d63e                	sw	a5,44(sp)
     9cc:	fff30793          	addi	a5,t1,-1 # ffff <_data_lma+0xd03b>
     9d0:	8efd                	and	a3,a3,a5
     9d2:	06c2                	slli	a3,a3,0x10
     9d4:	8f7d                	and	a4,a4,a5
     9d6:	9736                	add	a4,a4,a3
     9d8:	ca3a                	sw	a4,20(sp)
     9da:	92ba                	add	t0,t0,a4
     9dc:	8fe5                	and	a5,a5,s1
     9de:	0104d713          	srli	a4,s1,0x10
     9e2:	45e2                	lw	a1,24(sp)
     9e4:	c43a                	sw	a4,8(sp)
     9e6:	853e                	mv	a0,a5
     9e8:	20d010ef          	jal	23f4 <__mulsi3>
     9ec:	872a                	mv	a4,a0
     9ee:	45b2                	lw	a1,12(sp)
     9f0:	853e                	mv	a0,a5
     9f2:	203010ef          	jal	23f4 <__mulsi3>
     9f6:	83aa                	mv	t2,a0
     9f8:	45e2                	lw	a1,24(sp)
     9fa:	4522                	lw	a0,8(sp)
     9fc:	1f9010ef          	jal	23f4 <__mulsi3>
     a00:	842a                	mv	s0,a0
     a02:	45b2                	lw	a1,12(sp)
     a04:	4522                	lw	a0,8(sp)
     a06:	1ef010ef          	jal	23f4 <__mulsi3>
     a0a:	01075693          	srli	a3,a4,0x10
     a0e:	93a2                	add	t2,t2,s0
     a10:	93b6                	add	t2,t2,a3
     a12:	0083f363          	bgeu	t2,s0,a18 <__muldf3+0x1a4>
     a16:	951a                	add	a0,a0,t1
     a18:	6441                	lui	s0,0x10
     a1a:	fff40313          	addi	t1,s0,-1 # ffff <_data_lma+0xd03b>
     a1e:	0103d693          	srli	a3,t2,0x10
     a22:	0063f3b3          	and	t2,t2,t1
     a26:	03c2                	slli	t2,t2,0x10
     a28:	00677733          	and	a4,a4,t1
     a2c:	971e                	add	a4,a4,t2
     a2e:	00a684b3          	add	s1,a3,a0
     a32:	45f2                	lw	a1,28(sp)
     a34:	c63a                	sw	a4,12(sp)
     a36:	853e                	mv	a0,a5
     a38:	1bd010ef          	jal	23f4 <__mulsi3>
     a3c:	872a                	mv	a4,a0
     a3e:	45c2                	lw	a1,16(sp)
     a40:	853e                	mv	a0,a5
     a42:	1b3010ef          	jal	23f4 <__mulsi3>
     a46:	87aa                	mv	a5,a0
     a48:	45f2                	lw	a1,28(sp)
     a4a:	4522                	lw	a0,8(sp)
     a4c:	1a9010ef          	jal	23f4 <__mulsi3>
     a50:	83aa                	mv	t2,a0
     a52:	45c2                	lw	a1,16(sp)
     a54:	4522                	lw	a0,8(sp)
     a56:	19f010ef          	jal	23f4 <__mulsi3>
     a5a:	01075693          	srli	a3,a4,0x10
     a5e:	979e                	add	a5,a5,t2
     a60:	97b6                	add	a5,a5,a3
     a62:	0077f363          	bgeu	a5,t2,a68 <__muldf3+0x1f4>
     a66:	9522                	add	a0,a0,s0
     a68:	0067f633          	and	a2,a5,t1
     a6c:	0642                	slli	a2,a2,0x10
     a6e:	00677733          	and	a4,a4,t1
     a72:	5682                	lw	a3,32(sp)
     a74:	9732                	add	a4,a4,a2
     a76:	45d2                	lw	a1,20(sp)
     a78:	5632                	lw	a2,44(sp)
     a7a:	9696                	add	a3,a3,t0
     a7c:	00b6b5b3          	sltu	a1,a3,a1
     a80:	963a                	add	a2,a2,a4
     a82:	95b2                	add	a1,a1,a2
     a84:	00e63733          	sltu	a4,a2,a4
     a88:	00c5b633          	sltu	a2,a1,a2
     a8c:	8e59                	or	a2,a2,a4
     a8e:	83c1                	srli	a5,a5,0x10
     a90:	963e                	add	a2,a2,a5
     a92:	47b2                	lw	a5,12(sp)
     a94:	009582b3          	add	t0,a1,s1
     a98:	00f68733          	add	a4,a3,a5
     a9c:	00d736b3          	sltu	a3,a4,a3
     aa0:	00d28333          	add	t1,t0,a3
     aa4:	00b2b7b3          	sltu	a5,t0,a1
     aa8:	005332b3          	sltu	t0,t1,t0
     aac:	0057e7b3          	or	a5,a5,t0
     ab0:	97b2                	add	a5,a5,a2
     ab2:	97aa                	add	a5,a5,a0
     ab4:	5622                	lw	a2,40(sp)
     ab6:	01735693          	srli	a3,t1,0x17
     aba:	07a6                	slli	a5,a5,0x9
     abc:	8fd5                	or	a5,a5,a3
     abe:	00971693          	slli	a3,a4,0x9
     ac2:	8ed1                	or	a3,a3,a2
     ac4:	835d                	srli	a4,a4,0x17
     ac6:	00d036b3          	snez	a3,a3
     aca:	8ed9                	or	a3,a3,a4
     acc:	01000737          	lui	a4,0x1000
     ad0:	0326                	slli	t1,t1,0x9
     ad2:	8f7d                	and	a4,a4,a5
     ad4:	0066e6b3          	or	a3,a3,t1
     ad8:	1e070963          	beqz	a4,cca <__muldf3+0x456>
     adc:	0016d713          	srli	a4,a3,0x1
     ae0:	8a85                	andi	a3,a3,1
     ae2:	8f55                	or	a4,a4,a3
     ae4:	01f79693          	slli	a3,a5,0x1f
     ae8:	8ed9                	or	a3,a3,a4
     aea:	8385                	srli	a5,a5,0x1
     aec:	4712                	lw	a4,4(sp)
     aee:	3ff70513          	addi	a0,a4,1023 # 10003ff <_data_lma+0xffd43b>
     af2:	1ca05f63          	blez	a0,cd0 <__muldf3+0x45c>
     af6:	0076f713          	andi	a4,a3,7
     afa:	cf01                	beqz	a4,b12 <__muldf3+0x29e>
     afc:	00f6f713          	andi	a4,a3,15
     b00:	4611                	li	a2,4
     b02:	00c70863          	beq	a4,a2,b12 <__muldf3+0x29e>
     b06:	00468713          	addi	a4,a3,4 # 800004 <_data_lma+0x7fd040>
     b0a:	00d73633          	sltu	a2,a4,a3
     b0e:	97b2                	add	a5,a5,a2
     b10:	86ba                	mv	a3,a4
     b12:	01000737          	lui	a4,0x1000
     b16:	8f7d                	and	a4,a4,a5
     b18:	cb01                	beqz	a4,b28 <__muldf3+0x2b4>
     b1a:	ff000737          	lui	a4,0xff000
     b1e:	177d                	addi	a4,a4,-1 # feffffff <__global_pointer$+0xdefff7ff>
     b20:	8ff9                	and	a5,a5,a4
     b22:	4712                	lw	a4,4(sp)
     b24:	40070513          	addi	a0,a4,1024
     b28:	7fe00713          	li	a4,2046
     b2c:	24a74263          	blt	a4,a0,d70 <__muldf3+0x4fc>
     b30:	01d79613          	slli	a2,a5,0x1d
     b34:	828d                	srli	a3,a3,0x3
     b36:	8e55                	or	a2,a2,a3
     b38:	838d                	srli	a5,a5,0x3
     b3a:	07b2                	slli	a5,a5,0xc
     b3c:	01451713          	slli	a4,a0,0x14
     b40:	83b1                	srli	a5,a5,0xc
     b42:	8fd9                	or	a5,a5,a4
     b44:	4702                	lw	a4,0(sp)
     b46:	50e2                	lw	ra,56(sp)
     b48:	5452                	lw	s0,52(sp)
     b4a:	077e                	slli	a4,a4,0x1f
     b4c:	00e7e6b3          	or	a3,a5,a4
     b50:	54c2                	lw	s1,48(sp)
     b52:	8532                	mv	a0,a2
     b54:	85b6                	mv	a1,a3
     b56:	03c10113          	addi	sp,sp,60
     b5a:	8082                	ret
     b5c:	00a4e5b3          	or	a1,s1,a0
     b60:	c5bd                	beqz	a1,bce <__muldf3+0x35a>
     b62:	c232                	sw	a2,4(sp)
     b64:	cc85                	beqz	s1,b9c <__muldf3+0x328>
     b66:	c02a                	sw	a0,0(sp)
     b68:	8526                	mv	a0,s1
     b6a:	121010ef          	jal	248a <__clzsi2>
     b6e:	4702                	lw	a4,0(sp)
     b70:	4612                	lw	a2,4(sp)
     b72:	ff550593          	addi	a1,a0,-11
     b76:	47f5                	li	a5,29
     b78:	ff850693          	addi	a3,a0,-8
     b7c:	8f8d                	sub	a5,a5,a1
     b7e:	00d49333          	sll	t1,s1,a3
     b82:	00f757b3          	srl	a5,a4,a5
     b86:	0067e7b3          	or	a5,a5,t1
     b8a:	00d714b3          	sll	s1,a4,a3
     b8e:	c0d00313          	li	t1,-1011
     b92:	85a6                	mv	a1,s1
     b94:	40a30333          	sub	t1,t1,a0
     b98:	84be                	mv	s1,a5
     b9a:	b30d                	j	8bc <__muldf3+0x48>
     b9c:	c02a                	sw	a0,0(sp)
     b9e:	0ed010ef          	jal	248a <__clzsi2>
     ba2:	87aa                	mv	a5,a0
     ba4:	01578593          	addi	a1,a5,21 # 10015 <_data_lma+0xd051>
     ba8:	46f1                	li	a3,28
     baa:	4702                	lw	a4,0(sp)
     bac:	4612                	lw	a2,4(sp)
     bae:	02050513          	addi	a0,a0,32
     bb2:	fcb6d2e3          	bge	a3,a1,b76 <__muldf3+0x302>
     bb6:	17e1                	addi	a5,a5,-8
     bb8:	00f717b3          	sll	a5,a4,a5
     bbc:	bfc9                	j	b8e <__muldf3+0x31a>
     bbe:	00a4e5b3          	or	a1,s1,a0
     bc2:	c991                	beqz	a1,bd6 <__muldf3+0x362>
     bc4:	85aa                	mv	a1,a0
     bc6:	7ff00313          	li	t1,2047
     bca:	428d                	li	t0,3
     bcc:	b9cd                	j	8be <__muldf3+0x4a>
     bce:	4481                	li	s1,0
     bd0:	4301                	li	t1,0
     bd2:	4285                	li	t0,1
     bd4:	b1ed                	j	8be <__muldf3+0x4a>
     bd6:	4481                	li	s1,0
     bd8:	7ff00313          	li	t1,2047
     bdc:	4289                	li	t0,2
     bde:	b1c5                	j	8be <__muldf3+0x4a>
     be0:	00c7e6b3          	or	a3,a5,a2
     be4:	c2d9                	beqz	a3,c6a <__muldf3+0x3f6>
     be6:	c3a9                	beqz	a5,c28 <__muldf3+0x3b4>
     be8:	853e                	mv	a0,a5
     bea:	ca32                	sw	a2,20(sp)
     bec:	c82e                	sw	a1,16(sp)
     bee:	c61a                	sw	t1,12(sp)
     bf0:	c216                	sw	t0,4(sp)
     bf2:	c03e                	sw	a5,0(sp)
     bf4:	097010ef          	jal	248a <__clzsi2>
     bf8:	4782                	lw	a5,0(sp)
     bfa:	4292                	lw	t0,4(sp)
     bfc:	4332                	lw	t1,12(sp)
     bfe:	45c2                	lw	a1,16(sp)
     c00:	4652                	lw	a2,20(sp)
     c02:	ff550693          	addi	a3,a0,-11
     c06:	4775                	li	a4,29
     c08:	ff850393          	addi	t2,a0,-8
     c0c:	8f15                	sub	a4,a4,a3
     c0e:	007797b3          	sll	a5,a5,t2
     c12:	00e65733          	srl	a4,a2,a4
     c16:	8f5d                	or	a4,a4,a5
     c18:	007617b3          	sll	a5,a2,t2
     c1c:	c0d00613          	li	a2,-1011
     c20:	86be                	mv	a3,a5
     c22:	8e09                	sub	a2,a2,a0
     c24:	87ba                	mv	a5,a4
     c26:	b1e9                	j	8f0 <__muldf3+0x7c>
     c28:	8532                	mv	a0,a2
     c2a:	ca3e                	sw	a5,20(sp)
     c2c:	c82e                	sw	a1,16(sp)
     c2e:	c61a                	sw	t1,12(sp)
     c30:	c216                	sw	t0,4(sp)
     c32:	c032                	sw	a2,0(sp)
     c34:	057010ef          	jal	248a <__clzsi2>
     c38:	872a                	mv	a4,a0
     c3a:	01570693          	addi	a3,a4,21
     c3e:	43f1                	li	t2,28
     c40:	4602                	lw	a2,0(sp)
     c42:	4292                	lw	t0,4(sp)
     c44:	4332                	lw	t1,12(sp)
     c46:	45c2                	lw	a1,16(sp)
     c48:	47d2                	lw	a5,20(sp)
     c4a:	02050513          	addi	a0,a0,32
     c4e:	fad3dce3          	bge	t2,a3,c06 <__muldf3+0x392>
     c52:	1761                	addi	a4,a4,-8
     c54:	00e61733          	sll	a4,a2,a4
     c58:	b7d1                	j	c1c <__muldf3+0x3a8>
     c5a:	00c7e6b3          	or	a3,a5,a2
     c5e:	ca91                	beqz	a3,c72 <__muldf3+0x3fe>
     c60:	86b2                	mv	a3,a2
     c62:	470d                	li	a4,3
     c64:	7ff00613          	li	a2,2047
     c68:	b169                	j	8f2 <__muldf3+0x7e>
     c6a:	4781                	li	a5,0
     c6c:	4601                	li	a2,0
     c6e:	4705                	li	a4,1
     c70:	b149                	j	8f2 <__muldf3+0x7e>
     c72:	4781                	li	a5,0
     c74:	7ff00613          	li	a2,2047
     c78:	4709                	li	a4,2
     c7a:	b9a5                	j	8f2 <__muldf3+0x7e>
     c7c:	4505                	li	a0,1
     c7e:	00c51533          	sll	a0,a0,a2
     c82:	53057613          	andi	a2,a0,1328
     c86:	ee15                	bnez	a2,cc2 <__muldf3+0x44e>
     c88:	24057313          	andi	t1,a0,576
     c8c:	0c031863          	bnez	t1,d5c <__muldf3+0x4e8>
     c90:	08857513          	andi	a0,a0,136
     c94:	c80503e3          	beqz	a0,91a <__muldf3+0xa6>
     c98:	c022                	sw	s0,0(sp)
     c9a:	4609                	li	a2,2
     c9c:	0cc70a63          	beq	a4,a2,d70 <__muldf3+0x4fc>
     ca0:	460d                	li	a2,3
     ca2:	0cc70363          	beq	a4,a2,d68 <__muldf3+0x4f4>
     ca6:	4605                	li	a2,1
     ca8:	e4c712e3          	bne	a4,a2,aec <__muldf3+0x278>
     cac:	4781                	li	a5,0
     cae:	4601                	li	a2,0
     cb0:	a041                	j	d30 <__muldf3+0x4bc>
     cb2:	453d                	li	a0,15
     cb4:	0aa60a63          	beq	a2,a0,d68 <__muldf3+0x4f4>
     cb8:	452d                	li	a0,11
     cba:	fca60fe3          	beq	a2,a0,c98 <__muldf3+0x424>
     cbe:	47a2                	lw	a5,8(sp)
     cc0:	c03e                	sw	a5,0(sp)
     cc2:	87a6                	mv	a5,s1
     cc4:	86ae                	mv	a3,a1
     cc6:	8716                	mv	a4,t0
     cc8:	bfc9                	j	c9a <__muldf3+0x426>
     cca:	5712                	lw	a4,36(sp)
     ccc:	c23a                	sw	a4,4(sp)
     cce:	bd39                	j	aec <__muldf3+0x278>
     cd0:	4585                	li	a1,1
     cd2:	c909                	beqz	a0,ce4 <__muldf3+0x470>
     cd4:	8d89                	sub	a1,a1,a0
     cd6:	03800713          	li	a4,56
     cda:	fcb749e3          	blt	a4,a1,cac <__muldf3+0x438>
     cde:	477d                	li	a4,31
     ce0:	04b74a63          	blt	a4,a1,d34 <__muldf3+0x4c0>
     ce4:	4712                	lw	a4,4(sp)
     ce6:	00b6d533          	srl	a0,a3,a1
     cea:	41e70613          	addi	a2,a4,1054
     cee:	00c69733          	sll	a4,a3,a2
     cf2:	00e03733          	snez	a4,a4
     cf6:	00c79633          	sll	a2,a5,a2
     cfa:	8f51                	or	a4,a4,a2
     cfc:	8f49                	or	a4,a4,a0
     cfe:	00b7d7b3          	srl	a5,a5,a1
     d02:	00777693          	andi	a3,a4,7
     d06:	ce81                	beqz	a3,d1e <__muldf3+0x4aa>
     d08:	00f77693          	andi	a3,a4,15
     d0c:	4611                	li	a2,4
     d0e:	00c68863          	beq	a3,a2,d1e <__muldf3+0x4aa>
     d12:	00470693          	addi	a3,a4,4
     d16:	00e6b633          	sltu	a2,a3,a4
     d1a:	97b2                	add	a5,a5,a2
     d1c:	8736                	mv	a4,a3
     d1e:	008006b7          	lui	a3,0x800
     d22:	8efd                	and	a3,a3,a5
     d24:	eab9                	bnez	a3,d7a <__muldf3+0x506>
     d26:	01d79613          	slli	a2,a5,0x1d
     d2a:	830d                	srli	a4,a4,0x3
     d2c:	8e59                	or	a2,a2,a4
     d2e:	838d                	srli	a5,a5,0x3
     d30:	4501                	li	a0,0
     d32:	b521                	j	b3a <__muldf3+0x2c6>
     d34:	5705                	li	a4,-31
     d36:	8f09                	sub	a4,a4,a0
     d38:	02000513          	li	a0,32
     d3c:	00e7d733          	srl	a4,a5,a4
     d40:	4601                	li	a2,0
     d42:	00a58763          	beq	a1,a0,d50 <__muldf3+0x4dc>
     d46:	4612                	lw	a2,4(sp)
     d48:	43e60613          	addi	a2,a2,1086
     d4c:	00c79633          	sll	a2,a5,a2
     d50:	8e55                	or	a2,a2,a3
     d52:	00c03633          	snez	a2,a2
     d56:	8f51                	or	a4,a4,a2
     d58:	4781                	li	a5,0
     d5a:	b765                	j	d02 <__muldf3+0x48e>
     d5c:	000807b7          	lui	a5,0x80
     d60:	7ff00513          	li	a0,2047
     d64:	c002                	sw	zero,0(sp)
     d66:	bbd1                	j	b3a <__muldf3+0x2c6>
     d68:	000807b7          	lui	a5,0x80
     d6c:	4601                	li	a2,0
     d6e:	bfcd                	j	d60 <__muldf3+0x4ec>
     d70:	4781                	li	a5,0
     d72:	4601                	li	a2,0
     d74:	7ff00513          	li	a0,2047
     d78:	b3c9                	j	b3a <__muldf3+0x2c6>
     d7a:	4781                	li	a5,0
     d7c:	4601                	li	a2,0
     d7e:	4505                	li	a0,1
     d80:	bb6d                	j	b3a <__muldf3+0x2c6>

00000d82 <__subdf3>:
     d82:	00100337          	lui	t1,0x100
     d86:	137d                	addi	t1,t1,-1 # fffff <_data_lma+0xfd03b>
     d88:	1131                	addi	sp,sp,-20
     d8a:	00b372b3          	and	t0,t1,a1
     d8e:	0145d713          	srli	a4,a1,0x14
     d92:	01d55793          	srli	a5,a0,0x1d
     d96:	00d37333          	and	t1,t1,a3
     d9a:	c622                	sw	s0,12(sp)
     d9c:	c426                	sw	s1,8(sp)
     d9e:	01f5d413          	srli	s0,a1,0x1f
     da2:	7ff77493          	andi	s1,a4,2047
     da6:	0146d593          	srli	a1,a3,0x14
     daa:	00329713          	slli	a4,t0,0x3
     dae:	8fd9                	or	a5,a5,a4
     db0:	030e                	slli	t1,t1,0x3
     db2:	01d65713          	srli	a4,a2,0x1d
     db6:	c806                	sw	ra,16(sp)
     db8:	7ff5f593          	andi	a1,a1,2047
     dbc:	7ff00393          	li	t2,2047
     dc0:	050e                	slli	a0,a0,0x3
     dc2:	82fd                	srli	a3,a3,0x1f
     dc4:	00676733          	or	a4,a4,t1
     dc8:	060e                	slli	a2,a2,0x3
     dca:	06759063          	bne	a1,t2,e2a <__subdf3+0xa8>
     dce:	00c762b3          	or	t0,a4,a2
     dd2:	80148313          	addi	t1,s1,-2047
     dd6:	00028c63          	beqz	t0,dee <__subdf3+0x6c>
     dda:	82b6                	mv	t0,a3
     ddc:	34d41b63          	bne	s0,a3,1132 <__subdf3+0x3b0>
     de0:	1e030d63          	beqz	t1,fda <__subdf3+0x258>
     de4:	5c049963          	bnez	s1,13b6 <ch32v003fun.c.e3f7751f+0xb>
     de8:	7ff00493          	li	s1,2047
     dec:	aa59                	j	f82 <__subdf3+0x200>
     dee:	0016c293          	xori	t0,a3,1
     df2:	34541963          	bne	s0,t0,1144 <__subdf3+0x3c2>
     df6:	1e030263          	beqz	t1,fda <__subdf3+0x258>
     dfa:	d4fd                	beqz	s1,de8 <__subdf3+0x66>
     dfc:	4781                	li	a5,0
     dfe:	4501                	li	a0,0
     e00:	7ff00493          	li	s1,2047
     e04:	008006b7          	lui	a3,0x800
     e08:	8efd                	and	a3,a3,a5
     e0a:	5a068b63          	beqz	a3,13c0 <ch32v003fun.c.e3f7751f+0x15>
     e0e:	0485                	addi	s1,s1,1
     e10:	7ff00713          	li	a4,2047
     e14:	0ce48b63          	beq	s1,a4,eea <__subdf3+0x168>
     e18:	ff800737          	lui	a4,0xff800
     e1c:	177d                	addi	a4,a4,-1 # ff7fffff <__global_pointer$+0xdf7ff7ff>
     e1e:	8ff9                	and	a5,a5,a4
     e20:	810d                	srli	a0,a0,0x3
     e22:	01d79693          	slli	a3,a5,0x1d
     e26:	8ec9                	or	a3,a3,a0
     e28:	aba9                	j	1382 <__subdf3+0x600>
     e2a:	0016c293          	xori	t0,a3,1
     e2e:	40b48333          	sub	t1,s1,a1
     e32:	22541b63          	bne	s0,t0,1068 <__subdf3+0x2e6>
     e36:	0e605a63          	blez	t1,f2a <__subdf3+0x1a8>
     e3a:	e9a1                	bnez	a1,e8a <__subdf3+0x108>
     e3c:	00c766b3          	or	a3,a4,a2
     e40:	56068e63          	beqz	a3,13bc <ch32v003fun.c.e3f7751f+0x11>
     e44:	fff30693          	addi	a3,t1,-1
     e48:	ee85                	bnez	a3,e80 <__subdf3+0xfe>
     e4a:	962a                	add	a2,a2,a0
     e4c:	00a636b3          	sltu	a3,a2,a0
     e50:	97ba                	add	a5,a5,a4
     e52:	97b6                	add	a5,a5,a3
     e54:	00800737          	lui	a4,0x800
     e58:	8f7d                	and	a4,a4,a5
     e5a:	8532                	mv	a0,a2
     e5c:	1e071863          	bnez	a4,104c <__subdf3+0x2ca>
     e60:	4485                	li	s1,1
     e62:	00757713          	andi	a4,a0,7
     e66:	df59                	beqz	a4,e04 <__subdf3+0x82>
     e68:	00f57713          	andi	a4,a0,15
     e6c:	4691                	li	a3,4
     e6e:	f8d70be3          	beq	a4,a3,e04 <__subdf3+0x82>
     e72:	00450713          	addi	a4,a0,4
     e76:	00a736b3          	sltu	a3,a4,a0
     e7a:	97b6                	add	a5,a5,a3
     e7c:	853a                	mv	a0,a4
     e7e:	b759                	j	e04 <__subdf3+0x82>
     e80:	06731763          	bne	t1,t2,eee <__subdf3+0x16c>
     e84:	7ff00493          	li	s1,2047
     e88:	bfe9                	j	e62 <__subdf3+0xe0>
     e8a:	fc748ce3          	beq	s1,t2,e62 <__subdf3+0xe0>
     e8e:	03800693          	li	a3,56
     e92:	0666c263          	blt	a3,t1,ef6 <__subdf3+0x174>
     e96:	008006b7          	lui	a3,0x800
     e9a:	8f55                	or	a4,a4,a3
     e9c:	869a                	mv	a3,t1
     e9e:	45fd                	li	a1,31
     ea0:	04d5ce63          	blt	a1,a3,efc <__subdf3+0x17a>
     ea4:	02000313          	li	t1,32
     ea8:	40d30333          	sub	t1,t1,a3
     eac:	00d652b3          	srl	t0,a2,a3
     eb0:	006715b3          	sll	a1,a4,t1
     eb4:	00661333          	sll	t1,a2,t1
     eb8:	0055e5b3          	or	a1,a1,t0
     ebc:	00603333          	snez	t1,t1
     ec0:	0065e633          	or	a2,a1,t1
     ec4:	00d756b3          	srl	a3,a4,a3
     ec8:	9532                	add	a0,a0,a2
     eca:	96be                	add	a3,a3,a5
     ecc:	00c53633          	sltu	a2,a0,a2
     ed0:	00c687b3          	add	a5,a3,a2
     ed4:	00800737          	lui	a4,0x800
     ed8:	8f7d                	and	a4,a4,a5
     eda:	d741                	beqz	a4,e62 <__subdf3+0xe0>
     edc:	0485                	addi	s1,s1,1
     ede:	7ff00713          	li	a4,2047
     ee2:	16e49663          	bne	s1,a4,104e <__subdf3+0x2cc>
     ee6:	7ff00493          	li	s1,2047
     eea:	4781                	li	a5,0
     eec:	aa35                	j	1028 <__subdf3+0x2a6>
     eee:	03800593          	li	a1,56
     ef2:	fad5d6e3          	bge	a1,a3,e9e <__subdf3+0x11c>
     ef6:	4681                	li	a3,0
     ef8:	4605                	li	a2,1
     efa:	b7f9                	j	ec8 <__subdf3+0x146>
     efc:	fe068593          	addi	a1,a3,-32 # 7fffe0 <_data_lma+0x7fd01c>
     f00:	02000293          	li	t0,32
     f04:	00b755b3          	srl	a1,a4,a1
     f08:	4301                	li	t1,0
     f0a:	00568863          	beq	a3,t0,f1a <__subdf3+0x198>
     f0e:	04000313          	li	t1,64
     f12:	40d30333          	sub	t1,t1,a3
     f16:	00671333          	sll	t1,a4,t1
     f1a:	00c36333          	or	t1,t1,a2
     f1e:	00603333          	snez	t1,t1
     f22:	0065e633          	or	a2,a1,t1
     f26:	4681                	li	a3,0
     f28:	b745                	j	ec8 <__subdf3+0x146>
     f2a:	0a030863          	beqz	t1,fda <__subdf3+0x258>
     f2e:	409586b3          	sub	a3,a1,s1
     f32:	c4b9                	beqz	s1,f80 <__subdf3+0x1fe>
     f34:	03800313          	li	t1,56
     f38:	06d34763          	blt	t1,a3,fa6 <__subdf3+0x224>
     f3c:	00800337          	lui	t1,0x800
     f40:	0067e7b3          	or	a5,a5,t1
     f44:	437d                	li	t1,31
     f46:	06d34363          	blt	t1,a3,fac <__subdf3+0x22a>
     f4a:	02000293          	li	t0,32
     f4e:	40d282b3          	sub	t0,t0,a3
     f52:	00579333          	sll	t1,a5,t0
     f56:	00d553b3          	srl	t2,a0,a3
     f5a:	005512b3          	sll	t0,a0,t0
     f5e:	00736333          	or	t1,t1,t2
     f62:	005032b3          	snez	t0,t0
     f66:	00536333          	or	t1,t1,t0
     f6a:	00d7d6b3          	srl	a3,a5,a3
     f6e:	961a                	add	a2,a2,t1
     f70:	96ba                	add	a3,a3,a4
     f72:	00663333          	sltu	t1,a2,t1
     f76:	8532                	mv	a0,a2
     f78:	006687b3          	add	a5,a3,t1
     f7c:	84ae                	mv	s1,a1
     f7e:	bf99                	j	ed4 <__subdf3+0x152>
     f80:	84b6                	mv	s1,a3
     f82:	00a7e6b3          	or	a3,a5,a0
     f86:	ca89                	beqz	a3,f98 <__subdf3+0x216>
     f88:	fff48693          	addi	a3,s1,-1
     f8c:	ea068fe3          	beqz	a3,e4a <__subdf3+0xc8>
     f90:	7ff00313          	li	t1,2047
     f94:	00649563          	bne	s1,t1,f9e <__subdf3+0x21c>
     f98:	87ba                	mv	a5,a4
     f9a:	8532                	mv	a0,a2
     f9c:	b5d9                	j	e62 <__subdf3+0xe0>
     f9e:	03800313          	li	t1,56
     fa2:	fad351e3          	bge	t1,a3,f44 <__subdf3+0x1c2>
     fa6:	4681                	li	a3,0
     fa8:	4305                	li	t1,1
     faa:	b7d1                	j	f6e <__subdf3+0x1ec>
     fac:	fe068313          	addi	t1,a3,-32
     fb0:	02000393          	li	t2,32
     fb4:	0067d333          	srl	t1,a5,t1
     fb8:	4281                	li	t0,0
     fba:	00768863          	beq	a3,t2,fca <__subdf3+0x248>
     fbe:	04000293          	li	t0,64
     fc2:	40d282b3          	sub	t0,t0,a3
     fc6:	005792b3          	sll	t0,a5,t0
     fca:	00a2e2b3          	or	t0,t0,a0
     fce:	005032b3          	snez	t0,t0
     fd2:	00536333          	or	t1,t1,t0
     fd6:	4681                	li	a3,0
     fd8:	bf59                	j	f6e <__subdf3+0x1ec>
     fda:	00148693          	addi	a3,s1,1
     fde:	7fe6f593          	andi	a1,a3,2046
     fe2:	e5a9                	bnez	a1,102c <__subdf3+0x2aa>
     fe4:	00a7e6b3          	or	a3,a5,a0
     fe8:	e495                	bnez	s1,1014 <__subdf3+0x292>
     fea:	d6dd                	beqz	a3,f98 <__subdf3+0x216>
     fec:	00c766b3          	or	a3,a4,a2
     ff0:	e60689e3          	beqz	a3,e62 <__subdf3+0xe0>
     ff4:	962a                	add	a2,a2,a0
     ff6:	00a636b3          	sltu	a3,a2,a0
     ffa:	97ba                	add	a5,a5,a4
     ffc:	97b6                	add	a5,a5,a3
     ffe:	00800737          	lui	a4,0x800
    1002:	8f7d                	and	a4,a4,a5
    1004:	8532                	mv	a0,a2
    1006:	e4070ee3          	beqz	a4,e62 <__subdf3+0xe0>
    100a:	ff800737          	lui	a4,0xff800
    100e:	177d                	addi	a4,a4,-1 # ff7fffff <__global_pointer$+0xdf7ff7ff>
    1010:	8ff9                	and	a5,a5,a4
    1012:	b5b9                	j	e60 <__subdf3+0xde>
    1014:	3a068163          	beqz	a3,13b6 <ch32v003fun.c.e3f7751f+0xb>
    1018:	8f51                	or	a4,a4,a2
    101a:	e60705e3          	beqz	a4,e84 <__subdf3+0x102>
    101e:	4401                	li	s0,0
    1020:	7ff00493          	li	s1,2047
    1024:	000807b7          	lui	a5,0x80
    1028:	4681                	li	a3,0
    102a:	aea9                	j	1384 <__subdf3+0x602>
    102c:	7ff00593          	li	a1,2047
    1030:	eab68be3          	beq	a3,a1,ee6 <__subdf3+0x164>
    1034:	962a                	add	a2,a2,a0
    1036:	00a63533          	sltu	a0,a2,a0
    103a:	97ba                	add	a5,a5,a4
    103c:	97aa                	add	a5,a5,a0
    103e:	01f79513          	slli	a0,a5,0x1f
    1042:	8205                	srli	a2,a2,0x1
    1044:	8d51                	or	a0,a0,a2
    1046:	8385                	srli	a5,a5,0x1
    1048:	84b6                	mv	s1,a3
    104a:	bd21                	j	e62 <__subdf3+0xe0>
    104c:	4489                	li	s1,2
    104e:	ff800737          	lui	a4,0xff800
    1052:	177d                	addi	a4,a4,-1 # ff7fffff <__global_pointer$+0xdf7ff7ff>
    1054:	8ff9                	and	a5,a5,a4
    1056:	00155713          	srli	a4,a0,0x1
    105a:	8905                	andi	a0,a0,1
    105c:	8f49                	or	a4,a4,a0
    105e:	01f79513          	slli	a0,a5,0x1f
    1062:	8d59                	or	a0,a0,a4
    1064:	8385                	srli	a5,a5,0x1
    1066:	bbf5                	j	e62 <__subdf3+0xe0>
    1068:	0e605763          	blez	t1,1156 <__subdf3+0x3d4>
    106c:	e995                	bnez	a1,10a0 <__subdf3+0x31e>
    106e:	00c766b3          	or	a3,a4,a2
    1072:	34068563          	beqz	a3,13bc <ch32v003fun.c.e3f7751f+0x11>
    1076:	fff30693          	addi	a3,t1,-1 # 7fffff <_data_lma+0x7fd03b>
    107a:	ea91                	bnez	a3,108e <__subdf3+0x30c>
    107c:	40c50633          	sub	a2,a0,a2
    1080:	00c536b3          	sltu	a3,a0,a2
    1084:	8f99                	sub	a5,a5,a4
    1086:	8532                	mv	a0,a2
    1088:	8f95                	sub	a5,a5,a3
    108a:	4485                	li	s1,1
    108c:	a095                	j	10f0 <__subdf3+0x36e>
    108e:	de730be3          	beq	t1,t2,e84 <__subdf3+0x102>
    1092:	03800593          	li	a1,56
    1096:	00d5df63          	bge	a1,a3,10b4 <__subdf3+0x332>
    109a:	4681                	li	a3,0
    109c:	4605                	li	a2,1
    109e:	a081                	j	10de <__subdf3+0x35c>
    10a0:	dc7481e3          	beq	s1,t2,e62 <__subdf3+0xe0>
    10a4:	03800693          	li	a3,56
    10a8:	fe66c9e3          	blt	a3,t1,109a <__subdf3+0x318>
    10ac:	008006b7          	lui	a3,0x800
    10b0:	8f55                	or	a4,a4,a3
    10b2:	869a                	mv	a3,t1
    10b4:	45fd                	li	a1,31
    10b6:	04d5c763          	blt	a1,a3,1104 <__subdf3+0x382>
    10ba:	02000313          	li	t1,32
    10be:	40d30333          	sub	t1,t1,a3
    10c2:	00d652b3          	srl	t0,a2,a3
    10c6:	006715b3          	sll	a1,a4,t1
    10ca:	00661333          	sll	t1,a2,t1
    10ce:	0055e5b3          	or	a1,a1,t0
    10d2:	00603333          	snez	t1,t1
    10d6:	0065e633          	or	a2,a1,t1
    10da:	00d756b3          	srl	a3,a4,a3
    10de:	40c50633          	sub	a2,a0,a2
    10e2:	00c53733          	sltu	a4,a0,a2
    10e6:	40d786b3          	sub	a3,a5,a3
    10ea:	8532                	mv	a0,a2
    10ec:	40e687b3          	sub	a5,a3,a4
    10f0:	008005b7          	lui	a1,0x800
    10f4:	00b7f733          	and	a4,a5,a1
    10f8:	d60705e3          	beqz	a4,e62 <__subdf3+0xe0>
    10fc:	15fd                	addi	a1,a1,-1 # 7fffff <_data_lma+0x7fd03b>
    10fe:	8dfd                	and	a1,a1,a5
    1100:	832a                	mv	t1,a0
    1102:	a2d1                	j	12c6 <__subdf3+0x544>
    1104:	fe068593          	addi	a1,a3,-32 # 7fffe0 <_data_lma+0x7fd01c>
    1108:	02000293          	li	t0,32
    110c:	00b755b3          	srl	a1,a4,a1
    1110:	4301                	li	t1,0
    1112:	00568863          	beq	a3,t0,1122 <__subdf3+0x3a0>
    1116:	04000313          	li	t1,64
    111a:	40d30333          	sub	t1,t1,a3
    111e:	00671333          	sll	t1,a4,t1
    1122:	00c36333          	or	t1,t1,a2
    1126:	00603333          	snez	t1,t1
    112a:	0065e633          	or	a2,a1,t1
    112e:	4681                	li	a3,0
    1130:	b77d                	j	10de <__subdf3+0x35c>
    1132:	0e030a63          	beqz	t1,1226 <__subdf3+0x4a4>
    1136:	c4b1                	beqz	s1,1182 <__subdf3+0x400>
    1138:	87ba                	mv	a5,a4
    113a:	8532                	mv	a0,a2
    113c:	7ff00493          	li	s1,2047
    1140:	8436                	mv	s0,a3
    1142:	b305                	j	e62 <__subdf3+0xe0>
    1144:	0e030163          	beqz	t1,1226 <__subdf3+0x4a4>
    1148:	c0a9                	beqz	s1,118a <__subdf3+0x408>
    114a:	4781                	li	a5,0
    114c:	4501                	li	a0,0
    114e:	7ff00493          	li	s1,2047
    1152:	8416                	mv	s0,t0
    1154:	b945                	j	e04 <__subdf3+0x82>
    1156:	0c030863          	beqz	t1,1226 <__subdf3+0x4a4>
    115a:	409586b3          	sub	a3,a1,s1
    115e:	e0b9                	bnez	s1,11a4 <__subdf3+0x422>
    1160:	8416                	mv	s0,t0
    1162:	84b6                	mv	s1,a3
    1164:	00a7e6b3          	or	a3,a5,a0
    1168:	e20688e3          	beqz	a3,f98 <__subdf3+0x216>
    116c:	fff48693          	addi	a3,s1,-1
    1170:	ee99                	bnez	a3,118e <__subdf3+0x40c>
    1172:	40a60533          	sub	a0,a2,a0
    1176:	40f707b3          	sub	a5,a4,a5
    117a:	00a63633          	sltu	a2,a2,a0
    117e:	8f91                	sub	a5,a5,a2
    1180:	b729                	j	108a <__subdf3+0x308>
    1182:	8436                	mv	s0,a3
    1184:	7ff00493          	li	s1,2047
    1188:	bff1                	j	1164 <__subdf3+0x3e2>
    118a:	8416                	mv	s0,t0
    118c:	bfe5                	j	1184 <__subdf3+0x402>
    118e:	7ff00313          	li	t1,2047
    1192:	e06483e3          	beq	s1,t1,f98 <__subdf3+0x216>
    1196:	03800313          	li	t1,56
    119a:	00d35e63          	bge	t1,a3,11b6 <__subdf3+0x434>
    119e:	4681                	li	a3,0
    11a0:	4505                	li	a0,1
    11a2:	a83d                	j	11e0 <__subdf3+0x45e>
    11a4:	03800313          	li	t1,56
    11a8:	06d34d63          	blt	t1,a3,1222 <__subdf3+0x4a0>
    11ac:	00800337          	lui	t1,0x800
    11b0:	0067e7b3          	or	a5,a5,t1
    11b4:	8416                	mv	s0,t0
    11b6:	437d                	li	t1,31
    11b8:	02d34e63          	blt	t1,a3,11f4 <__subdf3+0x472>
    11bc:	02000293          	li	t0,32
    11c0:	40d282b3          	sub	t0,t0,a3
    11c4:	00d553b3          	srl	t2,a0,a3
    11c8:	00579333          	sll	t1,a5,t0
    11cc:	005512b3          	sll	t0,a0,t0
    11d0:	00736333          	or	t1,t1,t2
    11d4:	005032b3          	snez	t0,t0
    11d8:	00536533          	or	a0,t1,t0
    11dc:	00d7d6b3          	srl	a3,a5,a3
    11e0:	40a60533          	sub	a0,a2,a0
    11e4:	40d706b3          	sub	a3,a4,a3
    11e8:	00a637b3          	sltu	a5,a2,a0
    11ec:	40f687b3          	sub	a5,a3,a5
    11f0:	84ae                	mv	s1,a1
    11f2:	bdfd                	j	10f0 <__subdf3+0x36e>
    11f4:	fe068313          	addi	t1,a3,-32
    11f8:	02000393          	li	t2,32
    11fc:	0067d333          	srl	t1,a5,t1
    1200:	4281                	li	t0,0
    1202:	00768863          	beq	a3,t2,1212 <__subdf3+0x490>
    1206:	04000293          	li	t0,64
    120a:	40d282b3          	sub	t0,t0,a3
    120e:	005792b3          	sll	t0,a5,t0
    1212:	00a2e2b3          	or	t0,t0,a0
    1216:	005032b3          	snez	t0,t0
    121a:	00536533          	or	a0,t1,t0
    121e:	4681                	li	a3,0
    1220:	b7c1                	j	11e0 <__subdf3+0x45e>
    1222:	8416                	mv	s0,t0
    1224:	bfad                	j	119e <__subdf3+0x41c>
    1226:	00148693          	addi	a3,s1,1
    122a:	7fe6f693          	andi	a3,a3,2046
    122e:	e2bd                	bnez	a3,1294 <__subdf3+0x512>
    1230:	00c766b3          	or	a3,a4,a2
    1234:	00a7e5b3          	or	a1,a5,a0
    1238:	e4a1                	bnez	s1,1280 <__subdf3+0x4fe>
    123a:	e599                	bnez	a1,1248 <__subdf3+0x4c6>
    123c:	1a068263          	beqz	a3,13e0 <ch32v003fun.c.e3f7751f+0x35>
    1240:	87ba                	mv	a5,a4
    1242:	8532                	mv	a0,a2
    1244:	8416                	mv	s0,t0
    1246:	b931                	j	e62 <__subdf3+0xe0>
    1248:	c0068de3          	beqz	a3,e62 <__subdf3+0xe0>
    124c:	40c50333          	sub	t1,a0,a2
    1250:	006536b3          	sltu	a3,a0,t1
    1254:	40e785b3          	sub	a1,a5,a4
    1258:	8d95                	sub	a1,a1,a3
    125a:	008006b7          	lui	a3,0x800
    125e:	8eed                	and	a3,a3,a1
    1260:	ca89                	beqz	a3,1272 <__subdf3+0x4f0>
    1262:	40a60533          	sub	a0,a2,a0
    1266:	40f707b3          	sub	a5,a4,a5
    126a:	00a63633          	sltu	a2,a2,a0
    126e:	8f91                	sub	a5,a5,a2
    1270:	bfd1                	j	1244 <__subdf3+0x4c2>
    1272:	00b366b3          	or	a3,t1,a1
    1276:	16068563          	beqz	a3,13e0 <ch32v003fun.c.e3f7751f+0x35>
    127a:	87ae                	mv	a5,a1
    127c:	851a                	mv	a0,t1
    127e:	b6d5                	j	e62 <__subdf3+0xe0>
    1280:	e599                	bnez	a1,128e <__subdf3+0x50c>
    1282:	16068163          	beqz	a3,13e4 <ch32v003fun.c.e3f7751f+0x39>
    1286:	87ba                	mv	a5,a4
    1288:	8532                	mv	a0,a2
    128a:	8416                	mv	s0,t0
    128c:	bee5                	j	e84 <__subdf3+0x102>
    128e:	be068be3          	beqz	a3,e84 <__subdf3+0x102>
    1292:	b371                	j	101e <__subdf3+0x29c>
    1294:	40c506b3          	sub	a3,a0,a2
    1298:	00d533b3          	sltu	t2,a0,a3
    129c:	40e785b3          	sub	a1,a5,a4
    12a0:	407585b3          	sub	a1,a1,t2
    12a4:	008003b7          	lui	t2,0x800
    12a8:	0075f3b3          	and	t2,a1,t2
    12ac:	8336                	mv	t1,a3
    12ae:	06038663          	beqz	t2,131a <__subdf3+0x598>
    12b2:	40a60533          	sub	a0,a2,a0
    12b6:	40f707b3          	sub	a5,a4,a5
    12ba:	00a63633          	sltu	a2,a2,a0
    12be:	832a                	mv	t1,a0
    12c0:	40c785b3          	sub	a1,a5,a2
    12c4:	8416                	mv	s0,t0
    12c6:	cdb9                	beqz	a1,1324 <__subdf3+0x5a2>
    12c8:	852e                	mv	a0,a1
    12ca:	c21a                	sw	t1,4(sp)
    12cc:	c02e                	sw	a1,0(sp)
    12ce:	1bc010ef          	jal	248a <__clzsi2>
    12d2:	4582                	lw	a1,0(sp)
    12d4:	4312                	lw	t1,4(sp)
    12d6:	ff850793          	addi	a5,a0,-8
    12da:	02000713          	li	a4,32
    12de:	8f1d                	sub	a4,a4,a5
    12e0:	00f595b3          	sll	a1,a1,a5
    12e4:	00e35733          	srl	a4,t1,a4
    12e8:	8f4d                	or	a4,a4,a1
    12ea:	00f315b3          	sll	a1,t1,a5
    12ee:	0a97cd63          	blt	a5,s1,13a8 <__subdf3+0x626>
    12f2:	8f85                	sub	a5,a5,s1
    12f4:	00178613          	addi	a2,a5,1 # 80001 <_data_lma+0x7d03d>
    12f8:	02000693          	li	a3,32
    12fc:	8e91                	sub	a3,a3,a2
    12fe:	00d71533          	sll	a0,a4,a3
    1302:	00c5d7b3          	srl	a5,a1,a2
    1306:	00d596b3          	sll	a3,a1,a3
    130a:	8d5d                	or	a0,a0,a5
    130c:	00d036b3          	snez	a3,a3
    1310:	8d55                	or	a0,a0,a3
    1312:	00c757b3          	srl	a5,a4,a2
    1316:	4481                	li	s1,0
    1318:	b6a9                	j	e62 <__subdf3+0xe0>
    131a:	8ecd                	or	a3,a3,a1
    131c:	f6cd                	bnez	a3,12c6 <__subdf3+0x544>
    131e:	4781                	li	a5,0
    1320:	4481                	li	s1,0
    1322:	a86d                	j	13dc <ch32v003fun.c.e3f7751f+0x31>
    1324:	851a                	mv	a0,t1
    1326:	c22e                	sw	a1,4(sp)
    1328:	c01a                	sw	t1,0(sp)
    132a:	160010ef          	jal	248a <__clzsi2>
    132e:	01850793          	addi	a5,a0,24
    1332:	46fd                	li	a3,31
    1334:	4302                	lw	t1,0(sp)
    1336:	4592                	lw	a1,4(sp)
    1338:	faf6d1e3          	bge	a3,a5,12da <__subdf3+0x558>
    133c:	1561                	addi	a0,a0,-8
    133e:	00a31733          	sll	a4,t1,a0
    1342:	0297c963          	blt	a5,s1,1374 <__subdf3+0x5f2>
    1346:	8f85                	sub	a5,a5,s1
    1348:	00178613          	addi	a2,a5,1
    134c:	fac6d6e3          	bge	a3,a2,12f8 <__subdf3+0x576>
    1350:	1785                	addi	a5,a5,-31
    1352:	02000693          	li	a3,32
    1356:	00f757b3          	srl	a5,a4,a5
    135a:	4501                	li	a0,0
    135c:	00d60763          	beq	a2,a3,136a <__subdf3+0x5e8>
    1360:	04000513          	li	a0,64
    1364:	8d11                	sub	a0,a0,a2
    1366:	00a71533          	sll	a0,a4,a0
    136a:	00a03533          	snez	a0,a0
    136e:	8d5d                	or	a0,a0,a5
    1370:	4781                	li	a5,0
    1372:	b755                	j	1316 <__subdf3+0x594>
    1374:	8c9d                	sub	s1,s1,a5
    1376:	ff8007b7          	lui	a5,0xff800
    137a:	17fd                	addi	a5,a5,-1 # ff7fffff <__global_pointer$+0xdf7ff7ff>
    137c:	8ff9                	and	a5,a5,a4
    137e:	01d79693          	slli	a3,a5,0x1d
    1382:	838d                	srli	a5,a5,0x3
    1384:	01449713          	slli	a4,s1,0x14
    1388:	7ff00637          	lui	a2,0x7ff00
    138c:	07b2                	slli	a5,a5,0xc
    138e:	8f71                	and	a4,a4,a2
    1390:	83b1                	srli	a5,a5,0xc
    1392:	047e                	slli	s0,s0,0x1f
    1394:	8fd9                	or	a5,a5,a4
    1396:	40c2                	lw	ra,16(sp)
    1398:	0087e733          	or	a4,a5,s0
    139c:	4432                	lw	s0,12(sp)
    139e:	44a2                	lw	s1,8(sp)
    13a0:	8536                	mv	a0,a3
    13a2:	85ba                	mv	a1,a4
    13a4:	0151                	addi	sp,sp,20
    13a6:	8082                	ret
    13a8:	8c9d                	sub	s1,s1,a5
    13aa:	ff8007b7          	lui	a5,0xff800
    13ae:	17fd                	addi	a5,a5,-1 # ff7fffff <__global_pointer$+0xdf7ff7ff>
    13b0:	8ff9                	and	a5,a5,a4
    13b2:	852e                	mv	a0,a1
    13b4:	b47d                	j	e62 <__subdf3+0xe0>
    13b6:	87ba                	mv	a5,a4
    13b8:	8532                	mv	a0,a2
    13ba:	b4e9                	j	e84 <__subdf3+0x102>
    13bc:	849a                	mv	s1,t1
    13be:	b455                	j	e62 <__subdf3+0xe0>
    13c0:	01d79713          	slli	a4,a5,0x1d
    13c4:	810d                	srli	a0,a0,0x3
    13c6:	7ff00613          	li	a2,2047
    13ca:	8f49                	or	a4,a4,a0
    13cc:	838d                	srli	a5,a5,0x3
    13ce:	02c49163          	bne	s1,a2,13f0 <ch32v003fun.c.e3f7751f+0x45>
    13d2:	8f5d                	or	a4,a4,a5
    13d4:	000807b7          	lui	a5,0x80
    13d8:	b00707e3          	beqz	a4,ee6 <__subdf3+0x164>
    13dc:	4401                	li	s0,0
    13de:	b75d                	j	1384 <__subdf3+0x602>
    13e0:	4781                	li	a5,0
    13e2:	bfed                	j	13dc <ch32v003fun.c.e3f7751f+0x31>
    13e4:	4401                	li	s0,0
    13e6:	7ff00493          	li	s1,2047
    13ea:	000807b7          	lui	a5,0x80
    13ee:	bf59                	j	1384 <__subdf3+0x602>
    13f0:	86ba                	mv	a3,a4
    13f2:	bf49                	j	1384 <__subdf3+0x602>

000013f4 <__floatsidf>:
    13f4:	1151                	addi	sp,sp,-12
    13f6:	c406                	sw	ra,8(sp)
    13f8:	c222                	sw	s0,4(sp)
    13fa:	c026                	sw	s1,0(sp)
    13fc:	cd29                	beqz	a0,1456 <__floatsidf+0x62>
    13fe:	41f55793          	srai	a5,a0,0x1f
    1402:	00a7c433          	xor	s0,a5,a0
    1406:	8c1d                	sub	s0,s0,a5
    1408:	01f55493          	srli	s1,a0,0x1f
    140c:	8522                	mv	a0,s0
    140e:	07c010ef          	jal	248a <__clzsi2>
    1412:	41e00693          	li	a3,1054
    1416:	47a9                	li	a5,10
    1418:	8e89                	sub	a3,a3,a0
    141a:	02a7c863          	blt	a5,a0,144a <__floatsidf+0x56>
    141e:	47ad                	li	a5,11
    1420:	8f89                	sub	a5,a5,a0
    1422:	0555                	addi	a0,a0,21
    1424:	00a41733          	sll	a4,s0,a0
    1428:	00f457b3          	srl	a5,s0,a5
    142c:	8526                	mv	a0,s1
    142e:	07b2                	slli	a5,a5,0xc
    1430:	40a2                	lw	ra,8(sp)
    1432:	4412                	lw	s0,4(sp)
    1434:	83b1                	srli	a5,a5,0xc
    1436:	06d2                	slli	a3,a3,0x14
    1438:	057e                	slli	a0,a0,0x1f
    143a:	8edd                	or	a3,a3,a5
    143c:	00a6e7b3          	or	a5,a3,a0
    1440:	4482                	lw	s1,0(sp)
    1442:	853a                	mv	a0,a4
    1444:	85be                	mv	a1,a5
    1446:	0131                	addi	sp,sp,12
    1448:	8082                	ret
    144a:	1555                	addi	a0,a0,-11
    144c:	00a417b3          	sll	a5,s0,a0
    1450:	8526                	mv	a0,s1
    1452:	4701                	li	a4,0
    1454:	bfe9                	j	142e <__floatsidf+0x3a>
    1456:	4681                	li	a3,0
    1458:	4781                	li	a5,0
    145a:	bfe5                	j	1452 <__floatsidf+0x5e>

0000145c <__addsf3>:
    145c:	00800737          	lui	a4,0x800
    1460:	1141                	addi	sp,sp,-16
    1462:	177d                	addi	a4,a4,-1 # 7fffff <_data_lma+0x7fd03b>
    1464:	00a777b3          	and	a5,a4,a0
    1468:	c422                	sw	s0,8(sp)
    146a:	01f55693          	srli	a3,a0,0x1f
    146e:	01755413          	srli	s0,a0,0x17
    1472:	0175d513          	srli	a0,a1,0x17
    1476:	8f6d                	and	a4,a4,a1
    1478:	0ff47413          	zext.b	s0,s0
    147c:	0ff57513          	zext.b	a0,a0
    1480:	c606                	sw	ra,12(sp)
    1482:	c226                	sw	s1,4(sp)
    1484:	81fd                	srli	a1,a1,0x1f
    1486:	078e                	slli	a5,a5,0x3
    1488:	070e                	slli	a4,a4,0x3
    148a:	40a40633          	sub	a2,s0,a0
    148e:	16b69c63          	bne	a3,a1,1606 <__addsf3+0x1aa>
    1492:	0cc05a63          	blez	a2,1566 <__addsf3+0x10a>
    1496:	e50d                	bnez	a0,14c0 <__addsf3+0x64>
    1498:	16070563          	beqz	a4,1602 <__addsf3+0x1a6>
    149c:	fff60593          	addi	a1,a2,-1 # 7fefffff <__global_pointer$+0x5feff7ff>
    14a0:	e989                	bnez	a1,14b2 <__addsf3+0x56>
    14a2:	97ba                	add	a5,a5,a4
    14a4:	04000737          	lui	a4,0x4000
    14a8:	8f7d                	and	a4,a4,a5
    14aa:	4409                	li	s0,2
    14ac:	e745                	bnez	a4,1554 <__addsf3+0xf8>
    14ae:	4405                	li	s0,1
    14b0:	a025                	j	14d8 <__addsf3+0x7c>
    14b2:	0ff00513          	li	a0,255
    14b6:	00a61d63          	bne	a2,a0,14d0 <__addsf3+0x74>
    14ba:	0ff00413          	li	s0,255
    14be:	a829                	j	14d8 <__addsf3+0x7c>
    14c0:	0ff00593          	li	a1,255
    14c4:	00b40a63          	beq	s0,a1,14d8 <__addsf3+0x7c>
    14c8:	040005b7          	lui	a1,0x4000
    14cc:	8f4d                	or	a4,a4,a1
    14ce:	85b2                	mv	a1,a2
    14d0:	466d                	li	a2,27
    14d2:	04b65c63          	bge	a2,a1,152a <__addsf3+0xce>
    14d6:	0785                	addi	a5,a5,1 # 80001 <_data_lma+0x7d03d>
    14d8:	0077f713          	andi	a4,a5,7
    14dc:	c719                	beqz	a4,14ea <__addsf3+0x8e>
    14de:	00f7f713          	andi	a4,a5,15
    14e2:	4611                	li	a2,4
    14e4:	00c70363          	beq	a4,a2,14ea <__addsf3+0x8e>
    14e8:	0791                	addi	a5,a5,4
    14ea:	04000737          	lui	a4,0x4000
    14ee:	8f7d                	and	a4,a4,a5
    14f0:	26070e63          	beqz	a4,176c <__addsf3+0x310>
    14f4:	0405                	addi	s0,s0,1
    14f6:	0ff00713          	li	a4,255
    14fa:	4481                	li	s1,0
    14fc:	00e40863          	beq	s0,a4,150c <__addsf3+0xb0>
    1500:	0037d493          	srli	s1,a5,0x3
    1504:	1f8007b7          	lui	a5,0x1f800
    1508:	17fd                	addi	a5,a5,-1 # 1f7fffff <_data_lma+0x1f7fd03b>
    150a:	8cfd                	and	s1,s1,a5
    150c:	045e                	slli	s0,s0,0x17
    150e:	7f8007b7          	lui	a5,0x7f800
    1512:	04a6                	slli	s1,s1,0x9
    1514:	80a5                	srli	s1,s1,0x9
    1516:	8c7d                	and	s0,s0,a5
    1518:	8c45                	or	s0,s0,s1
    151a:	01f69513          	slli	a0,a3,0x1f
    151e:	40b2                	lw	ra,12(sp)
    1520:	8d41                	or	a0,a0,s0
    1522:	4422                	lw	s0,8(sp)
    1524:	4492                	lw	s1,4(sp)
    1526:	0141                	addi	sp,sp,16
    1528:	8082                	ret
    152a:	02000613          	li	a2,32
    152e:	8e0d                	sub	a2,a2,a1
    1530:	00b75533          	srl	a0,a4,a1
    1534:	00c71733          	sll	a4,a4,a2
    1538:	00e03733          	snez	a4,a4
    153c:	8f49                	or	a4,a4,a0
    153e:	97ba                	add	a5,a5,a4
    1540:	04000737          	lui	a4,0x4000
    1544:	8f7d                	and	a4,a4,a5
    1546:	db49                	beqz	a4,14d8 <__addsf3+0x7c>
    1548:	0405                	addi	s0,s0,1
    154a:	0ff00713          	li	a4,255
    154e:	4481                	li	s1,0
    1550:	fae40ee3          	beq	s0,a4,150c <__addsf3+0xb0>
    1554:	7e000737          	lui	a4,0x7e000
    1558:	0017f613          	andi	a2,a5,1
    155c:	177d                	addi	a4,a4,-1 # 7dffffff <__global_pointer$+0x5dfff7ff>
    155e:	8385                	srli	a5,a5,0x1
    1560:	8ff9                	and	a5,a5,a4
    1562:	8fd1                	or	a5,a5,a2
    1564:	bf95                	j	14d8 <__addsf3+0x7c>
    1566:	ce21                	beqz	a2,15be <__addsf3+0x162>
    1568:	40850633          	sub	a2,a0,s0
    156c:	ec01                	bnez	s0,1584 <__addsf3+0x128>
    156e:	1e078763          	beqz	a5,175c <__addsf3+0x300>
    1572:	fff60593          	addi	a1,a2,-1
    1576:	d595                	beqz	a1,14a2 <__addsf3+0x46>
    1578:	0ff00313          	li	t1,255
    157c:	00661c63          	bne	a2,t1,1594 <__addsf3+0x138>
    1580:	87ba                	mv	a5,a4
    1582:	bf25                	j	14ba <__addsf3+0x5e>
    1584:	0ff00593          	li	a1,255
    1588:	feb50ce3          	beq	a0,a1,1580 <__addsf3+0x124>
    158c:	040005b7          	lui	a1,0x4000
    1590:	8fcd                	or	a5,a5,a1
    1592:	85b2                	mv	a1,a2
    1594:	466d                	li	a2,27
    1596:	00b65663          	bge	a2,a1,15a2 <__addsf3+0x146>
    159a:	00170793          	addi	a5,a4,1
    159e:	842a                	mv	s0,a0
    15a0:	bf25                	j	14d8 <__addsf3+0x7c>
    15a2:	02000613          	li	a2,32
    15a6:	8e0d                	sub	a2,a2,a1
    15a8:	00b7d333          	srl	t1,a5,a1
    15ac:	00c797b3          	sll	a5,a5,a2
    15b0:	00f037b3          	snez	a5,a5
    15b4:	00f367b3          	or	a5,t1,a5
    15b8:	97ba                	add	a5,a5,a4
    15ba:	842a                	mv	s0,a0
    15bc:	b751                	j	1540 <__addsf3+0xe4>
    15be:	00140613          	addi	a2,s0,1
    15c2:	0fe67593          	andi	a1,a2,254
    15c6:	e985                	bnez	a1,15f6 <__addsf3+0x19a>
    15c8:	ec11                	bnez	s0,15e4 <__addsf3+0x188>
    15ca:	18078b63          	beqz	a5,1760 <__addsf3+0x304>
    15ce:	d709                	beqz	a4,14d8 <__addsf3+0x7c>
    15d0:	97ba                	add	a5,a5,a4
    15d2:	04000737          	lui	a4,0x4000
    15d6:	8f7d                	and	a4,a4,a5
    15d8:	d301                	beqz	a4,14d8 <__addsf3+0x7c>
    15da:	fc000737          	lui	a4,0xfc000
    15de:	177d                	addi	a4,a4,-1 # fbffffff <__global_pointer$+0xdbfff7ff>
    15e0:	8ff9                	and	a5,a5,a4
    15e2:	b5f1                	j	14ae <__addsf3+0x52>
    15e4:	dfd1                	beqz	a5,1580 <__addsf3+0x124>
    15e6:	ec070ae3          	beqz	a4,14ba <__addsf3+0x5e>
    15ea:	4681                	li	a3,0
    15ec:	0ff00413          	li	s0,255
    15f0:	004004b7          	lui	s1,0x400
    15f4:	bf21                	j	150c <__addsf3+0xb0>
    15f6:	0ff00593          	li	a1,255
    15fa:	18b60463          	beq	a2,a1,1782 <__addsf3+0x326>
    15fe:	97ba                	add	a5,a5,a4
    1600:	8385                	srli	a5,a5,0x1
    1602:	8432                	mv	s0,a2
    1604:	bdd1                	j	14d8 <__addsf3+0x7c>
    1606:	06c05063          	blez	a2,1666 <__addsf3+0x20a>
    160a:	e529                	bnez	a0,1654 <__addsf3+0x1f8>
    160c:	db7d                	beqz	a4,1602 <__addsf3+0x1a6>
    160e:	fff60593          	addi	a1,a2,-1
    1612:	e581                	bnez	a1,161a <__addsf3+0x1be>
    1614:	8f99                	sub	a5,a5,a4
    1616:	4405                	li	s0,1
    1618:	a02d                	j	1642 <__addsf3+0x1e6>
    161a:	0ff00513          	li	a0,255
    161e:	e8a60ee3          	beq	a2,a0,14ba <__addsf3+0x5e>
    1622:	456d                	li	a0,27
    1624:	4605                	li	a2,1
    1626:	00b54d63          	blt	a0,a1,1640 <__addsf3+0x1e4>
    162a:	02000613          	li	a2,32
    162e:	8e0d                	sub	a2,a2,a1
    1630:	00b75533          	srl	a0,a4,a1
    1634:	00c71733          	sll	a4,a4,a2
    1638:	00e03733          	snez	a4,a4
    163c:	00e56633          	or	a2,a0,a4
    1640:	8f91                	sub	a5,a5,a2
    1642:	040004b7          	lui	s1,0x4000
    1646:	0097f733          	and	a4,a5,s1
    164a:	e80707e3          	beqz	a4,14d8 <__addsf3+0x7c>
    164e:	14fd                	addi	s1,s1,-1 # 3ffffff <_data_lma+0x3ffd03b>
    1650:	8cfd                	and	s1,s1,a5
    1652:	a0e1                	j	171a <__addsf3+0x2be>
    1654:	0ff00593          	li	a1,255
    1658:	e8b400e3          	beq	s0,a1,14d8 <__addsf3+0x7c>
    165c:	040005b7          	lui	a1,0x4000
    1660:	8f4d                	or	a4,a4,a1
    1662:	85b2                	mv	a1,a2
    1664:	bf7d                	j	1622 <__addsf3+0x1c6>
    1666:	c225                	beqz	a2,16c6 <__addsf3+0x26a>
    1668:	408506b3          	sub	a3,a0,s0
    166c:	e00d                	bnez	s0,168e <__addsf3+0x232>
    166e:	cbfd                	beqz	a5,1764 <__addsf3+0x308>
    1670:	fff68613          	addi	a2,a3,-1 # 7fffff <_data_lma+0x7fd03b>
    1674:	e609                	bnez	a2,167e <__addsf3+0x222>
    1676:	40f707b3          	sub	a5,a4,a5
    167a:	86ae                	mv	a3,a1
    167c:	bf69                	j	1616 <__addsf3+0x1ba>
    167e:	0ff00313          	li	t1,255
    1682:	00669e63          	bne	a3,t1,169e <__addsf3+0x242>
    1686:	87ba                	mv	a5,a4
    1688:	0ff00413          	li	s0,255
    168c:	a8f1                	j	1768 <__addsf3+0x30c>
    168e:	0ff00613          	li	a2,255
    1692:	fec50ae3          	beq	a0,a2,1686 <__addsf3+0x22a>
    1696:	04000637          	lui	a2,0x4000
    169a:	8fd1                	or	a5,a5,a2
    169c:	8636                	mv	a2,a3
    169e:	436d                	li	t1,27
    16a0:	4685                	li	a3,1
    16a2:	00c34d63          	blt	t1,a2,16bc <__addsf3+0x260>
    16a6:	02000693          	li	a3,32
    16aa:	8e91                	sub	a3,a3,a2
    16ac:	00c7d333          	srl	t1,a5,a2
    16b0:	00d797b3          	sll	a5,a5,a3
    16b4:	00f037b3          	snez	a5,a5
    16b8:	00f366b3          	or	a3,t1,a5
    16bc:	40d707b3          	sub	a5,a4,a3
    16c0:	842a                	mv	s0,a0
    16c2:	86ae                	mv	a3,a1
    16c4:	bfbd                	j	1642 <__addsf3+0x1e6>
    16c6:	00140613          	addi	a2,s0,1
    16ca:	0fe67613          	andi	a2,a2,254
    16ce:	ee0d                	bnez	a2,1708 <__addsf3+0x2ac>
    16d0:	e40d                	bnez	s0,16fa <__addsf3+0x29e>
    16d2:	e789                	bnez	a5,16dc <__addsf3+0x280>
    16d4:	87ba                	mv	a5,a4
    16d6:	eb49                	bnez	a4,1768 <__addsf3+0x30c>
    16d8:	4481                	li	s1,0
    16da:	a831                	j	16f6 <__addsf3+0x29a>
    16dc:	de070ee3          	beqz	a4,14d8 <__addsf3+0x7c>
    16e0:	40e784b3          	sub	s1,a5,a4
    16e4:	04000637          	lui	a2,0x4000
    16e8:	8e65                	and	a2,a2,s1
    16ea:	40f707b3          	sub	a5,a4,a5
    16ee:	ee2d                	bnez	a2,1768 <__addsf3+0x30c>
    16f0:	87a6                	mv	a5,s1
    16f2:	de0493e3          	bnez	s1,14d8 <__addsf3+0x7c>
    16f6:	4681                	li	a3,0
    16f8:	bd11                	j	150c <__addsf3+0xb0>
    16fa:	ee0796e3          	bnez	a5,15e6 <__addsf3+0x18a>
    16fe:	ee0706e3          	beqz	a4,15ea <__addsf3+0x18e>
    1702:	87ba                	mv	a5,a4
    1704:	86ae                	mv	a3,a1
    1706:	bb55                	j	14ba <__addsf3+0x5e>
    1708:	40e784b3          	sub	s1,a5,a4
    170c:	04000637          	lui	a2,0x4000
    1710:	8e65                	and	a2,a2,s1
    1712:	ce05                	beqz	a2,174a <__addsf3+0x2ee>
    1714:	40f704b3          	sub	s1,a4,a5
    1718:	86ae                	mv	a3,a1
    171a:	8526                	mv	a0,s1
    171c:	c036                	sw	a3,0(sp)
    171e:	56d000ef          	jal	248a <__clzsi2>
    1722:	156d                	addi	a0,a0,-5
    1724:	4682                	lw	a3,0(sp)
    1726:	00a494b3          	sll	s1,s1,a0
    172a:	02854363          	blt	a0,s0,1750 <__addsf3+0x2f4>
    172e:	8d01                	sub	a0,a0,s0
    1730:	0505                	addi	a0,a0,1
    1732:	02000713          	li	a4,32
    1736:	8f09                	sub	a4,a4,a0
    1738:	00a4d7b3          	srl	a5,s1,a0
    173c:	00e494b3          	sll	s1,s1,a4
    1740:	009034b3          	snez	s1,s1
    1744:	8fc5                	or	a5,a5,s1
    1746:	4401                	li	s0,0
    1748:	bb41                	j	14d8 <__addsf3+0x7c>
    174a:	f8e1                	bnez	s1,171a <__addsf3+0x2be>
    174c:	4401                	li	s0,0
    174e:	b765                	j	16f6 <__addsf3+0x29a>
    1750:	fc0007b7          	lui	a5,0xfc000
    1754:	17fd                	addi	a5,a5,-1 # fbffffff <__global_pointer$+0xdbfff7ff>
    1756:	8c09                	sub	s0,s0,a0
    1758:	8fe5                	and	a5,a5,s1
    175a:	bbbd                	j	14d8 <__addsf3+0x7c>
    175c:	87ba                	mv	a5,a4
    175e:	b555                	j	1602 <__addsf3+0x1a6>
    1760:	87ba                	mv	a5,a4
    1762:	bb9d                	j	14d8 <__addsf3+0x7c>
    1764:	87ba                	mv	a5,a4
    1766:	8436                	mv	s0,a3
    1768:	86ae                	mv	a3,a1
    176a:	b3bd                	j	14d8 <__addsf3+0x7c>
    176c:	0037d493          	srli	s1,a5,0x3
    1770:	0ff00793          	li	a5,255
    1774:	d8f41ce3          	bne	s0,a5,150c <__addsf3+0xb0>
    1778:	d8048ae3          	beqz	s1,150c <__addsf3+0xb0>
    177c:	004004b7          	lui	s1,0x400
    1780:	bf9d                	j	16f6 <__addsf3+0x29a>
    1782:	0ff00413          	li	s0,255
    1786:	4481                	li	s1,0
    1788:	b351                	j	150c <__addsf3+0xb0>

0000178a <__divsf3>:
    178a:	fd810113          	addi	sp,sp,-40
    178e:	01755693          	srli	a3,a0,0x17
    1792:	ce26                	sw	s1,28(sp)
    1794:	00951793          	slli	a5,a0,0x9
    1798:	d206                	sw	ra,36(sp)
    179a:	d022                	sw	s0,32(sp)
    179c:	0ff6f693          	zext.b	a3,a3
    17a0:	83a5                	srli	a5,a5,0x9
    17a2:	01f55493          	srli	s1,a0,0x1f
    17a6:	c2ad                	beqz	a3,1808 <__divsf3+0x7e>
    17a8:	0ff00713          	li	a4,255
    17ac:	06e68f63          	beq	a3,a4,182a <__divsf3+0xa0>
    17b0:	078e                	slli	a5,a5,0x3
    17b2:	04000737          	lui	a4,0x4000
    17b6:	8fd9                	or	a5,a5,a4
    17b8:	f8168693          	addi	a3,a3,-127
    17bc:	4301                	li	t1,0
    17be:	0175d613          	srli	a2,a1,0x17
    17c2:	00959413          	slli	s0,a1,0x9
    17c6:	0ff67613          	zext.b	a2,a2
    17ca:	8025                	srli	s0,s0,0x9
    17cc:	81fd                	srli	a1,a1,0x1f
    17ce:	c63d                	beqz	a2,183c <__divsf3+0xb2>
    17d0:	0ff00713          	li	a4,255
    17d4:	08e60963          	beq	a2,a4,1866 <__divsf3+0xdc>
    17d8:	040e                	slli	s0,s0,0x3
    17da:	04000737          	lui	a4,0x4000
    17de:	8c59                	or	s0,s0,a4
    17e0:	f8160613          	addi	a2,a2,-127 # 3ffff81 <_data_lma+0x3ffcfbd>
    17e4:	4501                	li	a0,0
    17e6:	8e91                	sub	a3,a3,a2
    17e8:	00231613          	slli	a2,t1,0x2
    17ec:	8e49                	or	a2,a2,a0
    17ee:	167d                	addi	a2,a2,-1
    17f0:	42b9                	li	t0,14
    17f2:	00b4c733          	xor	a4,s1,a1
    17f6:	0ac2e063          	bltu	t0,a2,1896 <__divsf3+0x10c>
    17fa:	628d                	lui	t0,0x3
    17fc:	060a                	slli	a2,a2,0x2
    17fe:	e5028293          	addi	t0,t0,-432 # 2e50 <main+0x4e>
    1802:	9616                	add	a2,a2,t0
    1804:	4210                	lw	a2,0(a2)
    1806:	8602                	jr	a2
    1808:	c79d                	beqz	a5,1836 <__divsf3+0xac>
    180a:	853e                	mv	a0,a5
    180c:	c22e                	sw	a1,4(sp)
    180e:	c03e                	sw	a5,0(sp)
    1810:	47b000ef          	jal	248a <__clzsi2>
    1814:	4782                	lw	a5,0(sp)
    1816:	ffb50713          	addi	a4,a0,-5
    181a:	f8a00693          	li	a3,-118
    181e:	4592                	lw	a1,4(sp)
    1820:	00e797b3          	sll	a5,a5,a4
    1824:	8e89                	sub	a3,a3,a0
    1826:	4301                	li	t1,0
    1828:	bf59                	j	17be <__divsf3+0x34>
    182a:	0ff00693          	li	a3,255
    182e:	430d                	li	t1,3
    1830:	f7d9                	bnez	a5,17be <__divsf3+0x34>
    1832:	4309                	li	t1,2
    1834:	b769                	j	17be <__divsf3+0x34>
    1836:	4681                	li	a3,0
    1838:	4305                	li	t1,1
    183a:	b751                	j	17be <__divsf3+0x34>
    183c:	c81d                	beqz	s0,1872 <__divsf3+0xe8>
    183e:	8522                	mv	a0,s0
    1840:	c63e                	sw	a5,12(sp)
    1842:	c436                	sw	a3,8(sp)
    1844:	c21a                	sw	t1,4(sp)
    1846:	c02e                	sw	a1,0(sp)
    1848:	443000ef          	jal	248a <__clzsi2>
    184c:	ffb50713          	addi	a4,a0,-5
    1850:	f8a00613          	li	a2,-118
    1854:	8e09                	sub	a2,a2,a0
    1856:	4582                	lw	a1,0(sp)
    1858:	4312                	lw	t1,4(sp)
    185a:	46a2                	lw	a3,8(sp)
    185c:	47b2                	lw	a5,12(sp)
    185e:	00e41433          	sll	s0,s0,a4
    1862:	4501                	li	a0,0
    1864:	b749                	j	17e6 <__divsf3+0x5c>
    1866:	0ff00613          	li	a2,255
    186a:	450d                	li	a0,3
    186c:	fc2d                	bnez	s0,17e6 <__divsf3+0x5c>
    186e:	4509                	li	a0,2
    1870:	bf9d                	j	17e6 <__divsf3+0x5c>
    1872:	4601                	li	a2,0
    1874:	4505                	li	a0,1
    1876:	bf85                	j	17e6 <__divsf3+0x5c>
    1878:	8726                	mv	a4,s1
    187a:	843e                	mv	s0,a5
    187c:	851a                	mv	a0,t1
    187e:	4789                	li	a5,2
    1880:	1af50163          	beq	a0,a5,1a22 <__divsf3+0x298>
    1884:	478d                	li	a5,3
    1886:	18f50863          	beq	a0,a5,1a16 <__divsf3+0x28c>
    188a:	4785                	li	a5,1
    188c:	0ef51263          	bne	a0,a5,1970 <__divsf3+0x1e6>
    1890:	4781                	li	a5,0
    1892:	4501                	li	a0,0
    1894:	aa19                	j	19aa <__divsf3+0x220>
    1896:	00541613          	slli	a2,s0,0x5
    189a:	1287f463          	bgeu	a5,s0,19c2 <__divsf3+0x238>
    189e:	16fd                	addi	a3,a3,-1
    18a0:	4381                	li	t2,0
    18a2:	c83a                	sw	a4,16(sp)
    18a4:	01065713          	srli	a4,a2,0x10
    18a8:	c03a                	sw	a4,0(sp)
    18aa:	4582                	lw	a1,0(sp)
    18ac:	6441                	lui	s0,0x10
    18ae:	147d                	addi	s0,s0,-1 # ffff <_data_lma+0xd03b>
    18b0:	00867733          	and	a4,a2,s0
    18b4:	853e                	mv	a0,a5
    18b6:	cc36                	sw	a3,24(sp)
    18b8:	ca1e                	sw	t2,20(sp)
    18ba:	c632                	sw	a2,12(sp)
    18bc:	c23a                	sw	a4,4(sp)
    18be:	c43e                	sw	a5,8(sp)
    18c0:	355000ef          	jal	2414 <__hidden___udivsi3>
    18c4:	85aa                	mv	a1,a0
    18c6:	842a                	mv	s0,a0
    18c8:	4512                	lw	a0,4(sp)
    18ca:	32b000ef          	jal	23f4 <__mulsi3>
    18ce:	47a2                	lw	a5,8(sp)
    18d0:	4582                	lw	a1,0(sp)
    18d2:	84aa                	mv	s1,a0
    18d4:	853e                	mv	a0,a5
    18d6:	36b000ef          	jal	2440 <__umodsi3>
    18da:	43d2                	lw	t2,20(sp)
    18dc:	0542                	slli	a0,a0,0x10
    18de:	4632                	lw	a2,12(sp)
    18e0:	0103d593          	srli	a1,t2,0x10
    18e4:	8dc9                	or	a1,a1,a0
    18e6:	4742                	lw	a4,16(sp)
    18e8:	46e2                	lw	a3,24(sp)
    18ea:	87a2                	mv	a5,s0
    18ec:	0095fc63          	bgeu	a1,s1,1904 <__divsf3+0x17a>
    18f0:	95b2                	add	a1,a1,a2
    18f2:	fff40793          	addi	a5,s0,-1
    18f6:	00c5e763          	bltu	a1,a2,1904 <__divsf3+0x17a>
    18fa:	0095f563          	bgeu	a1,s1,1904 <__divsf3+0x17a>
    18fe:	ffe40793          	addi	a5,s0,-2
    1902:	95b2                	add	a1,a1,a2
    1904:	c83e                	sw	a5,16(sp)
    1906:	409587b3          	sub	a5,a1,s1
    190a:	4582                	lw	a1,0(sp)
    190c:	853e                	mv	a0,a5
    190e:	843e                	mv	s0,a5
    1910:	ca36                	sw	a3,20(sp)
    1912:	c63a                	sw	a4,12(sp)
    1914:	cc32                	sw	a2,24(sp)
    1916:	2ff000ef          	jal	2414 <__hidden___udivsi3>
    191a:	85aa                	mv	a1,a0
    191c:	c42a                	sw	a0,8(sp)
    191e:	4512                	lw	a0,4(sp)
    1920:	2d5000ef          	jal	23f4 <__mulsi3>
    1924:	4582                	lw	a1,0(sp)
    1926:	84aa                	mv	s1,a0
    1928:	8522                	mv	a0,s0
    192a:	317000ef          	jal	2440 <__umodsi3>
    192e:	43a2                	lw	t2,8(sp)
    1930:	01051313          	slli	t1,a0,0x10
    1934:	4732                	lw	a4,12(sp)
    1936:	47c2                	lw	a5,16(sp)
    1938:	46d2                	lw	a3,20(sp)
    193a:	859e                	mv	a1,t2
    193c:	02937163          	bgeu	t1,s1,195e <__divsf3+0x1d4>
    1940:	4662                	lw	a2,24(sp)
    1942:	fff38593          	addi	a1,t2,-1 # 7fffff <_data_lma+0x7fd03b>
    1946:	00c30533          	add	a0,t1,a2
    194a:	00653433          	sltu	s0,a0,t1
    194e:	832a                	mv	t1,a0
    1950:	e419                	bnez	s0,195e <__divsf3+0x1d4>
    1952:	00957663          	bgeu	a0,s1,195e <__divsf3+0x1d4>
    1956:	ffe38593          	addi	a1,t2,-2
    195a:	00c50333          	add	t1,a0,a2
    195e:	01079413          	slli	s0,a5,0x10
    1962:	40930333          	sub	t1,t1,s1
    1966:	8c4d                	or	s0,s0,a1
    1968:	00603333          	snez	t1,t1
    196c:	00646433          	or	s0,s0,t1
    1970:	07f68513          	addi	a0,a3,127
    1974:	04a05d63          	blez	a0,19ce <__divsf3+0x244>
    1978:	00747793          	andi	a5,s0,7
    197c:	c799                	beqz	a5,198a <__divsf3+0x200>
    197e:	00f47793          	andi	a5,s0,15
    1982:	4611                	li	a2,4
    1984:	00c78363          	beq	a5,a2,198a <__divsf3+0x200>
    1988:	0411                	addi	s0,s0,4
    198a:	080007b7          	lui	a5,0x8000
    198e:	8fe1                	and	a5,a5,s0
    1990:	c799                	beqz	a5,199e <__divsf3+0x214>
    1992:	f80007b7          	lui	a5,0xf8000
    1996:	17fd                	addi	a5,a5,-1 # f7ffffff <__global_pointer$+0xd7fff7ff>
    1998:	8c7d                	and	s0,s0,a5
    199a:	08068513          	addi	a0,a3,128
    199e:	0fe00793          	li	a5,254
    19a2:	08a7c063          	blt	a5,a0,1a22 <__divsf3+0x298>
    19a6:	00345793          	srli	a5,s0,0x3
    19aa:	5092                	lw	ra,36(sp)
    19ac:	5402                	lw	s0,32(sp)
    19ae:	07a6                	slli	a5,a5,0x9
    19b0:	055e                	slli	a0,a0,0x17
    19b2:	83a5                	srli	a5,a5,0x9
    19b4:	8d5d                	or	a0,a0,a5
    19b6:	077e                	slli	a4,a4,0x1f
    19b8:	44f2                	lw	s1,28(sp)
    19ba:	8d59                	or	a0,a0,a4
    19bc:	02810113          	addi	sp,sp,40
    19c0:	8082                	ret
    19c2:	01f79393          	slli	t2,a5,0x1f
    19c6:	8385                	srli	a5,a5,0x1
    19c8:	bde9                	j	18a2 <__divsf3+0x118>
    19ca:	872e                	mv	a4,a1
    19cc:	bd4d                	j	187e <__divsf3+0xf4>
    19ce:	4605                	li	a2,1
    19d0:	c519                	beqz	a0,19de <__divsf3+0x254>
    19d2:	8e09                	sub	a2,a2,a0
    19d4:	45ed                	li	a1,27
    19d6:	4781                	li	a5,0
    19d8:	4501                	li	a0,0
    19da:	fcc5c8e3          	blt	a1,a2,19aa <__divsf3+0x220>
    19de:	09e68693          	addi	a3,a3,158
    19e2:	00c45633          	srl	a2,s0,a2
    19e6:	00d41433          	sll	s0,s0,a3
    19ea:	00803433          	snez	s0,s0
    19ee:	008667b3          	or	a5,a2,s0
    19f2:	0077f693          	andi	a3,a5,7
    19f6:	c699                	beqz	a3,1a04 <__divsf3+0x27a>
    19f8:	00f7f693          	andi	a3,a5,15
    19fc:	4611                	li	a2,4
    19fe:	00c68363          	beq	a3,a2,1a04 <__divsf3+0x27a>
    1a02:	0791                	addi	a5,a5,4
    1a04:	040006b7          	lui	a3,0x4000
    1a08:	8efd                	and	a3,a3,a5
    1a0a:	838d                	srli	a5,a5,0x3
    1a0c:	e80683e3          	beqz	a3,1892 <__divsf3+0x108>
    1a10:	4781                	li	a5,0
    1a12:	4505                	li	a0,1
    1a14:	bf59                	j	19aa <__divsf3+0x220>
    1a16:	004007b7          	lui	a5,0x400
    1a1a:	0ff00513          	li	a0,255
    1a1e:	4701                	li	a4,0
    1a20:	b769                	j	19aa <__divsf3+0x220>
    1a22:	4781                	li	a5,0
    1a24:	0ff00513          	li	a0,255
    1a28:	b749                	j	19aa <__divsf3+0x220>

00001a2a <__gesf2>:
    1a2a:	00800737          	lui	a4,0x800
    1a2e:	177d                	addi	a4,a4,-1 # 7fffff <_data_lma+0x7fd03b>
    1a30:	01755693          	srli	a3,a0,0x17
    1a34:	00a77633          	and	a2,a4,a0
    1a38:	01f55793          	srli	a5,a0,0x1f
    1a3c:	0ff6f693          	zext.b	a3,a3
    1a40:	0175d513          	srli	a0,a1,0x17
    1a44:	0ff00313          	li	t1,255
    1a48:	8f6d                	and	a4,a4,a1
    1a4a:	0ff57513          	zext.b	a0,a0
    1a4e:	81fd                	srli	a1,a1,0x1f
    1a50:	00669f63          	bne	a3,t1,1a6e <__gesf2+0x44>
    1a54:	e225                	bnez	a2,1ab4 <__gesf2+0x8a>
    1a56:	00d50663          	beq	a0,a3,1a62 <__gesf2+0x38>
    1a5a:	4505                	li	a0,1
    1a5c:	c7b1                	beqz	a5,1aa8 <__gesf2+0x7e>
    1a5e:	557d                	li	a0,-1
    1a60:	8082                	ret
    1a62:	5579                	li	a0,-2
    1a64:	e331                	bnez	a4,1aa8 <__gesf2+0x7e>
    1a66:	feb79ae3          	bne	a5,a1,1a5a <__gesf2+0x30>
    1a6a:	4501                	li	a0,0
    1a6c:	8082                	ret
    1a6e:	00651c63          	bne	a0,t1,1a86 <__gesf2+0x5c>
    1a72:	5579                	li	a0,-2
    1a74:	eb15                	bnez	a4,1aa8 <__gesf2+0x7e>
    1a76:	e291                	bnez	a3,1a7a <__gesf2+0x50>
    1a78:	ca15                	beqz	a2,1aac <__gesf2+0x82>
    1a7a:	feb790e3          	bne	a5,a1,1a5a <__gesf2+0x30>
    1a7e:	557d                	li	a0,-1
    1a80:	c785                	beqz	a5,1aa8 <__gesf2+0x7e>
    1a82:	853e                	mv	a0,a5
    1a84:	8082                	ret
    1a86:	ce91                	beqz	a3,1aa2 <__gesf2+0x78>
    1a88:	d969                	beqz	a0,1a5a <__gesf2+0x30>
    1a8a:	fcb798e3          	bne	a5,a1,1a5a <__gesf2+0x30>
    1a8e:	fcd546e3          	blt	a0,a3,1a5a <__gesf2+0x30>
    1a92:	fea6c6e3          	blt	a3,a0,1a7e <__gesf2+0x54>
    1a96:	fcc762e3          	bltu	a4,a2,1a5a <__gesf2+0x30>
    1a9a:	4501                	li	a0,0
    1a9c:	00e67663          	bgeu	a2,a4,1aa8 <__gesf2+0x7e>
    1aa0:	bff9                	j	1a7e <__gesf2+0x54>
    1aa2:	f979                	bnez	a0,1a78 <__gesf2+0x4e>
    1aa4:	e319                	bnez	a4,1aaa <__gesf2+0x80>
    1aa6:	fa55                	bnez	a2,1a5a <__gesf2+0x30>
    1aa8:	8082                	ret
    1aaa:	e619                	bnez	a2,1ab8 <__gesf2+0x8e>
    1aac:	557d                	li	a0,-1
    1aae:	dded                	beqz	a1,1aa8 <__gesf2+0x7e>
    1ab0:	852e                	mv	a0,a1
    1ab2:	8082                	ret
    1ab4:	5579                	li	a0,-2
    1ab6:	8082                	ret
    1ab8:	fcb78fe3          	beq	a5,a1,1a96 <__gesf2+0x6c>
    1abc:	bf79                	j	1a5a <__gesf2+0x30>

00001abe <__lesf2>:
    1abe:	00800737          	lui	a4,0x800
    1ac2:	177d                	addi	a4,a4,-1 # 7fffff <_data_lma+0x7fd03b>
    1ac4:	01755693          	srli	a3,a0,0x17
    1ac8:	00a77633          	and	a2,a4,a0
    1acc:	01f55793          	srli	a5,a0,0x1f
    1ad0:	0ff6f693          	zext.b	a3,a3
    1ad4:	0175d513          	srli	a0,a1,0x17
    1ad8:	0ff00313          	li	t1,255
    1adc:	8f6d                	and	a4,a4,a1
    1ade:	0ff57513          	zext.b	a0,a0
    1ae2:	81fd                	srli	a1,a1,0x1f
    1ae4:	00669f63          	bne	a3,t1,1b02 <__lesf2+0x44>
    1ae8:	e225                	bnez	a2,1b48 <__lesf2+0x8a>
    1aea:	00d50663          	beq	a0,a3,1af6 <__lesf2+0x38>
    1aee:	4505                	li	a0,1
    1af0:	c7b1                	beqz	a5,1b3c <__lesf2+0x7e>
    1af2:	557d                	li	a0,-1
    1af4:	8082                	ret
    1af6:	4509                	li	a0,2
    1af8:	e331                	bnez	a4,1b3c <__lesf2+0x7e>
    1afa:	feb79ae3          	bne	a5,a1,1aee <__lesf2+0x30>
    1afe:	4501                	li	a0,0
    1b00:	8082                	ret
    1b02:	00651c63          	bne	a0,t1,1b1a <__lesf2+0x5c>
    1b06:	4509                	li	a0,2
    1b08:	eb15                	bnez	a4,1b3c <__lesf2+0x7e>
    1b0a:	e291                	bnez	a3,1b0e <__lesf2+0x50>
    1b0c:	ca15                	beqz	a2,1b40 <__lesf2+0x82>
    1b0e:	feb790e3          	bne	a5,a1,1aee <__lesf2+0x30>
    1b12:	557d                	li	a0,-1
    1b14:	c785                	beqz	a5,1b3c <__lesf2+0x7e>
    1b16:	853e                	mv	a0,a5
    1b18:	8082                	ret
    1b1a:	ce91                	beqz	a3,1b36 <__lesf2+0x78>
    1b1c:	d969                	beqz	a0,1aee <__lesf2+0x30>
    1b1e:	fcb798e3          	bne	a5,a1,1aee <__lesf2+0x30>
    1b22:	fcd546e3          	blt	a0,a3,1aee <__lesf2+0x30>
    1b26:	fea6c6e3          	blt	a3,a0,1b12 <__lesf2+0x54>
    1b2a:	fcc762e3          	bltu	a4,a2,1aee <__lesf2+0x30>
    1b2e:	4501                	li	a0,0
    1b30:	00e67663          	bgeu	a2,a4,1b3c <__lesf2+0x7e>
    1b34:	bff9                	j	1b12 <__lesf2+0x54>
    1b36:	f979                	bnez	a0,1b0c <__lesf2+0x4e>
    1b38:	e319                	bnez	a4,1b3e <__lesf2+0x80>
    1b3a:	fa55                	bnez	a2,1aee <__lesf2+0x30>
    1b3c:	8082                	ret
    1b3e:	e619                	bnez	a2,1b4c <__lesf2+0x8e>
    1b40:	557d                	li	a0,-1
    1b42:	dded                	beqz	a1,1b3c <__lesf2+0x7e>
    1b44:	852e                	mv	a0,a1
    1b46:	8082                	ret
    1b48:	4509                	li	a0,2
    1b4a:	8082                	ret
    1b4c:	fcb78fe3          	beq	a5,a1,1b2a <__lesf2+0x6c>
    1b50:	bf79                	j	1aee <__lesf2+0x30>

00001b52 <__mulsf3>:
    1b52:	1111                	addi	sp,sp,-28
    1b54:	01755293          	srli	t0,a0,0x17
    1b58:	ca22                	sw	s0,20(sp)
    1b5a:	c826                	sw	s1,16(sp)
    1b5c:	00951713          	slli	a4,a0,0x9
    1b60:	cc06                	sw	ra,24(sp)
    1b62:	0ff2f293          	zext.b	t0,t0
    1b66:	84ae                	mv	s1,a1
    1b68:	8325                	srli	a4,a4,0x9
    1b6a:	01f55413          	srli	s0,a0,0x1f
    1b6e:	12028f63          	beqz	t0,1cac <__mulsf3+0x15a>
    1b72:	0ff00793          	li	a5,255
    1b76:	14f28963          	beq	t0,a5,1cc8 <__mulsf3+0x176>
    1b7a:	070e                	slli	a4,a4,0x3
    1b7c:	040007b7          	lui	a5,0x4000
    1b80:	8f5d                	or	a4,a4,a5
    1b82:	f8128293          	addi	t0,t0,-127
    1b86:	4601                	li	a2,0
    1b88:	0174d693          	srli	a3,s1,0x17
    1b8c:	00949793          	slli	a5,s1,0x9
    1b90:	0ff6f693          	zext.b	a3,a3
    1b94:	83a5                	srli	a5,a5,0x9
    1b96:	80fd                	srli	s1,s1,0x1f
    1b98:	14068263          	beqz	a3,1cdc <__mulsf3+0x18a>
    1b9c:	0ff00593          	li	a1,255
    1ba0:	16b68263          	beq	a3,a1,1d04 <__mulsf3+0x1b2>
    1ba4:	040005b7          	lui	a1,0x4000
    1ba8:	078e                	slli	a5,a5,0x3
    1baa:	8fcd                	or	a5,a5,a1
    1bac:	f8168693          	addi	a3,a3,-127 # 3ffff81 <_data_lma+0x3ffcfbd>
    1bb0:	4581                	li	a1,0
    1bb2:	9696                	add	a3,a3,t0
    1bb4:	c036                	sw	a3,0(sp)
    1bb6:	00168293          	addi	t0,a3,1
    1bba:	00261693          	slli	a3,a2,0x2
    1bbe:	8ecd                	or	a3,a3,a1
    1bc0:	4529                	li	a0,10
    1bc2:	00944333          	xor	t1,s0,s1
    1bc6:	18d54363          	blt	a0,a3,1d4c <__mulsf3+0x1fa>
    1bca:	4509                	li	a0,2
    1bcc:	14d54663          	blt	a0,a3,1d18 <__mulsf3+0x1c6>
    1bd0:	16fd                	addi	a3,a3,-1
    1bd2:	4605                	li	a2,1
    1bd4:	16d67063          	bgeu	a2,a3,1d34 <__mulsf3+0x1e2>
    1bd8:	64c1                	lui	s1,0x10
    1bda:	01075693          	srli	a3,a4,0x10
    1bde:	fff48393          	addi	t2,s1,-1 # ffff <_data_lma+0xd03b>
    1be2:	c236                	sw	a3,4(sp)
    1be4:	00777733          	and	a4,a4,t2
    1be8:	0107d693          	srli	a3,a5,0x10
    1bec:	0077f7b3          	and	a5,a5,t2
    1bf0:	c436                	sw	a3,8(sp)
    1bf2:	853a                	mv	a0,a4
    1bf4:	85be                	mv	a1,a5
    1bf6:	7fe000ef          	jal	23f4 <__mulsi3>
    1bfa:	842a                	mv	s0,a0
    1bfc:	45a2                	lw	a1,8(sp)
    1bfe:	853a                	mv	a0,a4
    1c00:	7f4000ef          	jal	23f4 <__mulsi3>
    1c04:	872a                	mv	a4,a0
    1c06:	85be                	mv	a1,a5
    1c08:	4512                	lw	a0,4(sp)
    1c0a:	7ea000ef          	jal	23f4 <__mulsi3>
    1c0e:	87aa                	mv	a5,a0
    1c10:	45a2                	lw	a1,8(sp)
    1c12:	4512                	lw	a0,4(sp)
    1c14:	7e0000ef          	jal	23f4 <__mulsi3>
    1c18:	01045693          	srli	a3,s0,0x10
    1c1c:	973e                	add	a4,a4,a5
    1c1e:	9736                	add	a4,a4,a3
    1c20:	00f77363          	bgeu	a4,a5,1c26 <__mulsf3+0xd4>
    1c24:	9526                	add	a0,a0,s1
    1c26:	007777b3          	and	a5,a4,t2
    1c2a:	007476b3          	and	a3,s0,t2
    1c2e:	07c2                	slli	a5,a5,0x10
    1c30:	97b6                	add	a5,a5,a3
    1c32:	00679693          	slli	a3,a5,0x6
    1c36:	00d036b3          	snez	a3,a3
    1c3a:	83e9                	srli	a5,a5,0x1a
    1c3c:	8edd                	or	a3,a3,a5
    1c3e:	01075793          	srli	a5,a4,0x10
    1c42:	97aa                	add	a5,a5,a0
    1c44:	079a                	slli	a5,a5,0x6
    1c46:	8fd5                	or	a5,a5,a3
    1c48:	08000737          	lui	a4,0x8000
    1c4c:	8f7d                	and	a4,a4,a5
    1c4e:	10070963          	beqz	a4,1d60 <__mulsf3+0x20e>
    1c52:	0017d713          	srli	a4,a5,0x1
    1c56:	8b85                	andi	a5,a5,1
    1c58:	8fd9                	or	a5,a5,a4
    1c5a:	07f28513          	addi	a0,t0,127
    1c5e:	10a05363          	blez	a0,1d64 <__mulsf3+0x212>
    1c62:	0077f713          	andi	a4,a5,7
    1c66:	c719                	beqz	a4,1c74 <__mulsf3+0x122>
    1c68:	00f7f713          	andi	a4,a5,15
    1c6c:	4691                	li	a3,4
    1c6e:	00d70363          	beq	a4,a3,1c74 <__mulsf3+0x122>
    1c72:	0791                	addi	a5,a5,4 # 4000004 <_data_lma+0x3ffd040>
    1c74:	08000737          	lui	a4,0x8000
    1c78:	8f7d                	and	a4,a4,a5
    1c7a:	c719                	beqz	a4,1c88 <__mulsf3+0x136>
    1c7c:	f8000737          	lui	a4,0xf8000
    1c80:	177d                	addi	a4,a4,-1 # f7ffffff <__global_pointer$+0xd7fff7ff>
    1c82:	8ff9                	and	a5,a5,a4
    1c84:	08028513          	addi	a0,t0,128
    1c88:	0fe00713          	li	a4,254
    1c8c:	12a74563          	blt	a4,a0,1db6 <__mulsf3+0x264>
    1c90:	0037d713          	srli	a4,a5,0x3
    1c94:	40e2                	lw	ra,24(sp)
    1c96:	4452                	lw	s0,20(sp)
    1c98:	0726                	slli	a4,a4,0x9
    1c9a:	055e                	slli	a0,a0,0x17
    1c9c:	8325                	srli	a4,a4,0x9
    1c9e:	8d59                	or	a0,a0,a4
    1ca0:	037e                	slli	t1,t1,0x1f
    1ca2:	44c2                	lw	s1,16(sp)
    1ca4:	00656533          	or	a0,a0,t1
    1ca8:	0171                	addi	sp,sp,28
    1caa:	8082                	ret
    1cac:	c70d                	beqz	a4,1cd6 <__mulsf3+0x184>
    1cae:	853a                	mv	a0,a4
    1cb0:	c03a                	sw	a4,0(sp)
    1cb2:	2fe1                	jal	248a <__clzsi2>
    1cb4:	4702                	lw	a4,0(sp)
    1cb6:	ffb50793          	addi	a5,a0,-5
    1cba:	f8a00293          	li	t0,-118
    1cbe:	00f71733          	sll	a4,a4,a5
    1cc2:	40a282b3          	sub	t0,t0,a0
    1cc6:	b5c1                	j	1b86 <__mulsf3+0x34>
    1cc8:	0ff00293          	li	t0,255
    1ccc:	460d                	li	a2,3
    1cce:	ea071de3          	bnez	a4,1b88 <__mulsf3+0x36>
    1cd2:	4609                	li	a2,2
    1cd4:	bd55                	j	1b88 <__mulsf3+0x36>
    1cd6:	4281                	li	t0,0
    1cd8:	4605                	li	a2,1
    1cda:	b57d                	j	1b88 <__mulsf3+0x36>
    1cdc:	cb9d                	beqz	a5,1d12 <__mulsf3+0x1c0>
    1cde:	853e                	mv	a0,a5
    1ce0:	c63a                	sw	a4,12(sp)
    1ce2:	c416                	sw	t0,8(sp)
    1ce4:	c232                	sw	a2,4(sp)
    1ce6:	c03e                	sw	a5,0(sp)
    1ce8:	274d                	jal	248a <__clzsi2>
    1cea:	4782                	lw	a5,0(sp)
    1cec:	ffb50693          	addi	a3,a0,-5
    1cf0:	4612                	lw	a2,4(sp)
    1cf2:	00d797b3          	sll	a5,a5,a3
    1cf6:	f8a00693          	li	a3,-118
    1cfa:	42a2                	lw	t0,8(sp)
    1cfc:	4732                	lw	a4,12(sp)
    1cfe:	8e89                	sub	a3,a3,a0
    1d00:	4581                	li	a1,0
    1d02:	bd45                	j	1bb2 <__mulsf3+0x60>
    1d04:	0ff00693          	li	a3,255
    1d08:	458d                	li	a1,3
    1d0a:	ea0794e3          	bnez	a5,1bb2 <__mulsf3+0x60>
    1d0e:	4589                	li	a1,2
    1d10:	b54d                	j	1bb2 <__mulsf3+0x60>
    1d12:	4681                	li	a3,0
    1d14:	4585                	li	a1,1
    1d16:	bd71                	j	1bb2 <__mulsf3+0x60>
    1d18:	4505                	li	a0,1
    1d1a:	00d516b3          	sll	a3,a0,a3
    1d1e:	5306f513          	andi	a0,a3,1328
    1d22:	ed05                	bnez	a0,1d5a <__mulsf3+0x208>
    1d24:	2406f613          	andi	a2,a3,576
    1d28:	e249                	bnez	a2,1daa <__mulsf3+0x258>
    1d2a:	0886f693          	andi	a3,a3,136
    1d2e:	ea0685e3          	beqz	a3,1bd8 <__mulsf3+0x86>
    1d32:	8326                	mv	t1,s1
    1d34:	4709                	li	a4,2
    1d36:	08e58063          	beq	a1,a4,1db6 <__mulsf3+0x264>
    1d3a:	470d                	li	a4,3
    1d3c:	06e58763          	beq	a1,a4,1daa <__mulsf3+0x258>
    1d40:	4705                	li	a4,1
    1d42:	f0e59ce3          	bne	a1,a4,1c5a <__mulsf3+0x108>
    1d46:	4701                	li	a4,0
    1d48:	4501                	li	a0,0
    1d4a:	b7a9                	j	1c94 <__mulsf3+0x142>
    1d4c:	453d                	li	a0,15
    1d4e:	04a68e63          	beq	a3,a0,1daa <__mulsf3+0x258>
    1d52:	452d                	li	a0,11
    1d54:	8322                	mv	t1,s0
    1d56:	fca68ee3          	beq	a3,a0,1d32 <__mulsf3+0x1e0>
    1d5a:	87ba                	mv	a5,a4
    1d5c:	85b2                	mv	a1,a2
    1d5e:	bfd9                	j	1d34 <__mulsf3+0x1e2>
    1d60:	4282                	lw	t0,0(sp)
    1d62:	bde5                	j	1c5a <__mulsf3+0x108>
    1d64:	4685                	li	a3,1
    1d66:	c519                	beqz	a0,1d74 <__mulsf3+0x222>
    1d68:	8e89                	sub	a3,a3,a0
    1d6a:	466d                	li	a2,27
    1d6c:	4701                	li	a4,0
    1d6e:	4501                	li	a0,0
    1d70:	f2d642e3          	blt	a2,a3,1c94 <__mulsf3+0x142>
    1d74:	09e28293          	addi	t0,t0,158
    1d78:	00d7d6b3          	srl	a3,a5,a3
    1d7c:	005797b3          	sll	a5,a5,t0
    1d80:	00f037b3          	snez	a5,a5
    1d84:	00f6e733          	or	a4,a3,a5
    1d88:	00777793          	andi	a5,a4,7
    1d8c:	c799                	beqz	a5,1d9a <__mulsf3+0x248>
    1d8e:	00f77793          	andi	a5,a4,15
    1d92:	4691                	li	a3,4
    1d94:	00d78363          	beq	a5,a3,1d9a <__mulsf3+0x248>
    1d98:	0711                	addi	a4,a4,4
    1d9a:	040007b7          	lui	a5,0x4000
    1d9e:	8ff9                	and	a5,a5,a4
    1da0:	830d                	srli	a4,a4,0x3
    1da2:	d3dd                	beqz	a5,1d48 <__mulsf3+0x1f6>
    1da4:	4701                	li	a4,0
    1da6:	4505                	li	a0,1
    1da8:	b5f5                	j	1c94 <__mulsf3+0x142>
    1daa:	00400737          	lui	a4,0x400
    1dae:	0ff00513          	li	a0,255
    1db2:	4301                	li	t1,0
    1db4:	b5c5                	j	1c94 <__mulsf3+0x142>
    1db6:	4701                	li	a4,0
    1db8:	0ff00513          	li	a0,255
    1dbc:	bde1                	j	1c94 <__mulsf3+0x142>

00001dbe <__subsf3>:
    1dbe:	008007b7          	lui	a5,0x800
    1dc2:	1141                	addi	sp,sp,-16
    1dc4:	17fd                	addi	a5,a5,-1 # 7fffff <_data_lma+0x7fd03b>
    1dc6:	00a7f633          	and	a2,a5,a0
    1dca:	c422                	sw	s0,8(sp)
    1dcc:	01f55713          	srli	a4,a0,0x1f
    1dd0:	01755413          	srli	s0,a0,0x17
    1dd4:	0175d513          	srli	a0,a1,0x17
    1dd8:	8fed                	and	a5,a5,a1
    1dda:	c606                	sw	ra,12(sp)
    1ddc:	c226                	sw	s1,4(sp)
    1dde:	0ff57513          	zext.b	a0,a0
    1de2:	0ff00313          	li	t1,255
    1de6:	0ff47413          	zext.b	s0,s0
    1dea:	060e                	slli	a2,a2,0x3
    1dec:	81fd                	srli	a1,a1,0x1f
    1dee:	078e                	slli	a5,a5,0x3
    1df0:	06651763          	bne	a0,t1,1e5e <__subsf3+0xa0>
    1df4:	f0140693          	addi	a3,s0,-255
    1df8:	cb91                	beqz	a5,1e0c <__subsf3+0x4e>
    1dfa:	82ae                	mv	t0,a1
    1dfc:	1eb71363          	bne	a4,a1,1fe2 <__subsf3+0x224>
    1e00:	14068363          	beqz	a3,1f46 <__subsf3+0x188>
    1e04:	e451                	bnez	s0,1e90 <__subsf3+0xd2>
    1e06:	0ff00413          	li	s0,255
    1e0a:	a211                	j	1f0e <__subsf3+0x150>
    1e0c:	0015c293          	xori	t0,a1,1
    1e10:	1c571f63          	bne	a4,t0,1fee <__subsf3+0x230>
    1e14:	12068963          	beqz	a3,1f46 <__subsf3+0x188>
    1e18:	d47d                	beqz	s0,1e06 <__subsf3+0x48>
    1e1a:	0ff00413          	li	s0,255
    1e1e:	040006b7          	lui	a3,0x4000
    1e22:	8efd                	and	a3,a3,a5
    1e24:	2c068963          	beqz	a3,20f6 <__subsf3+0x338>
    1e28:	0405                	addi	s0,s0,1
    1e2a:	0ff00693          	li	a3,255
    1e2e:	4481                	li	s1,0
    1e30:	00d40863          	beq	s0,a3,1e40 <__subsf3+0x82>
    1e34:	0037d493          	srli	s1,a5,0x3
    1e38:	1f8007b7          	lui	a5,0x1f800
    1e3c:	17fd                	addi	a5,a5,-1 # 1f7fffff <_data_lma+0x1f7fd03b>
    1e3e:	8cfd                	and	s1,s1,a5
    1e40:	045e                	slli	s0,s0,0x17
    1e42:	7f8007b7          	lui	a5,0x7f800
    1e46:	04a6                	slli	s1,s1,0x9
    1e48:	80a5                	srli	s1,s1,0x9
    1e4a:	8c7d                	and	s0,s0,a5
    1e4c:	8c45                	or	s0,s0,s1
    1e4e:	01f71513          	slli	a0,a4,0x1f
    1e52:	40b2                	lw	ra,12(sp)
    1e54:	8d41                	or	a0,a0,s0
    1e56:	4422                	lw	s0,8(sp)
    1e58:	4492                	lw	s1,4(sp)
    1e5a:	0141                	addi	sp,sp,16
    1e5c:	8082                	ret
    1e5e:	0015c293          	xori	t0,a1,1
    1e62:	40a406b3          	sub	a3,s0,a0
    1e66:	10571f63          	bne	a4,t0,1f84 <__subsf3+0x1c6>
    1e6a:	08d05963          	blez	a3,1efc <__subsf3+0x13e>
    1e6e:	e505                	bnez	a0,1e96 <__subsf3+0xd8>
    1e70:	26078f63          	beqz	a5,20ee <__subsf3+0x330>
    1e74:	fff68593          	addi	a1,a3,-1 # 3ffffff <_data_lma+0x3ffd03b>
    1e78:	e989                	bnez	a1,1e8a <__subsf3+0xcc>
    1e7a:	97b2                	add	a5,a5,a2
    1e7c:	040006b7          	lui	a3,0x4000
    1e80:	8efd                	and	a3,a3,a5
    1e82:	4409                	li	s0,2
    1e84:	e2bd                	bnez	a3,1eea <__subsf3+0x12c>
    1e86:	4405                	li	s0,1
    1e88:	a015                	j	1eac <__subsf3+0xee>
    1e8a:	00669c63          	bne	a3,t1,1ea2 <__subsf3+0xe4>
    1e8e:	87b2                	mv	a5,a2
    1e90:	0ff00413          	li	s0,255
    1e94:	a821                	j	1eac <__subsf3+0xee>
    1e96:	24640e63          	beq	s0,t1,20f2 <__subsf3+0x334>
    1e9a:	040005b7          	lui	a1,0x4000
    1e9e:	8fcd                	or	a5,a5,a1
    1ea0:	85b6                	mv	a1,a3
    1ea2:	46ed                	li	a3,27
    1ea4:	00b6de63          	bge	a3,a1,1ec0 <__subsf3+0x102>
    1ea8:	00160793          	addi	a5,a2,1
    1eac:	0077f693          	andi	a3,a5,7
    1eb0:	d6bd                	beqz	a3,1e1e <__subsf3+0x60>
    1eb2:	00f7f693          	andi	a3,a5,15
    1eb6:	4611                	li	a2,4
    1eb8:	f6c683e3          	beq	a3,a2,1e1e <__subsf3+0x60>
    1ebc:	0791                	addi	a5,a5,4 # 7f800004 <__global_pointer$+0x5f7ff804>
    1ebe:	b785                	j	1e1e <__subsf3+0x60>
    1ec0:	02000693          	li	a3,32
    1ec4:	8e8d                	sub	a3,a3,a1
    1ec6:	00b7d533          	srl	a0,a5,a1
    1eca:	00d797b3          	sll	a5,a5,a3
    1ece:	00f037b3          	snez	a5,a5
    1ed2:	8fc9                	or	a5,a5,a0
    1ed4:	97b2                	add	a5,a5,a2
    1ed6:	040006b7          	lui	a3,0x4000
    1eda:	8efd                	and	a3,a3,a5
    1edc:	dae1                	beqz	a3,1eac <__subsf3+0xee>
    1ede:	0405                	addi	s0,s0,1
    1ee0:	0ff00693          	li	a3,255
    1ee4:	4481                	li	s1,0
    1ee6:	f4d40de3          	beq	s0,a3,1e40 <__subsf3+0x82>
    1eea:	7e0006b7          	lui	a3,0x7e000
    1eee:	0017f613          	andi	a2,a5,1
    1ef2:	16fd                	addi	a3,a3,-1 # 7dffffff <__global_pointer$+0x5dfff7ff>
    1ef4:	8385                	srli	a5,a5,0x1
    1ef6:	8ff5                	and	a5,a5,a3
    1ef8:	8fd1                	or	a5,a5,a2
    1efa:	bf4d                	j	1eac <__subsf3+0xee>
    1efc:	c6a9                	beqz	a3,1f46 <__subsf3+0x188>
    1efe:	408505b3          	sub	a1,a0,s0
    1f02:	c409                	beqz	s0,1f0c <__subsf3+0x14e>
    1f04:	040006b7          	lui	a3,0x4000
    1f08:	8e55                	or	a2,a2,a3
    1f0a:	a811                	j	1f1e <__subsf3+0x160>
    1f0c:	842e                	mv	s0,a1
    1f0e:	de59                	beqz	a2,1eac <__subsf3+0xee>
    1f10:	fff40593          	addi	a1,s0,-1
    1f14:	d1bd                	beqz	a1,1e7a <__subsf3+0xbc>
    1f16:	0ff00693          	li	a3,255
    1f1a:	f8d409e3          	beq	s0,a3,1eac <__subsf3+0xee>
    1f1e:	46ed                	li	a3,27
    1f20:	00b6d563          	bge	a3,a1,1f2a <__subsf3+0x16c>
    1f24:	0785                	addi	a5,a5,1
    1f26:	842a                	mv	s0,a0
    1f28:	b751                	j	1eac <__subsf3+0xee>
    1f2a:	02000693          	li	a3,32
    1f2e:	8e8d                	sub	a3,a3,a1
    1f30:	00d616b3          	sll	a3,a2,a3
    1f34:	00b65333          	srl	t1,a2,a1
    1f38:	00d036b3          	snez	a3,a3
    1f3c:	00d366b3          	or	a3,t1,a3
    1f40:	97b6                	add	a5,a5,a3
    1f42:	842a                	mv	s0,a0
    1f44:	bf49                	j	1ed6 <__subsf3+0x118>
    1f46:	00140693          	addi	a3,s0,1
    1f4a:	0fe6f593          	andi	a1,a3,254
    1f4e:	e195                	bnez	a1,1f72 <__subsf3+0x1b4>
    1f50:	ec11                	bnez	s0,1f6c <__subsf3+0x1ae>
    1f52:	de29                	beqz	a2,1eac <__subsf3+0xee>
    1f54:	18078f63          	beqz	a5,20f2 <__subsf3+0x334>
    1f58:	97b2                	add	a5,a5,a2
    1f5a:	040006b7          	lui	a3,0x4000
    1f5e:	8efd                	and	a3,a3,a5
    1f60:	d6b1                	beqz	a3,1eac <__subsf3+0xee>
    1f62:	fc0006b7          	lui	a3,0xfc000
    1f66:	16fd                	addi	a3,a3,-1 # fbffffff <__global_pointer$+0xdbfff7ff>
    1f68:	8ff5                	and	a5,a5,a3
    1f6a:	bf31                	j	1e86 <__subsf3+0xc8>
    1f6c:	d215                	beqz	a2,1e90 <__subsf3+0xd2>
    1f6e:	d385                	beqz	a5,1e8e <__subsf3+0xd0>
    1f70:	a205                	j	2090 <__subsf3+0x2d2>
    1f72:	0ff00593          	li	a1,255
    1f76:	18b68b63          	beq	a3,a1,210c <__subsf3+0x34e>
    1f7a:	963e                	add	a2,a2,a5
    1f7c:	00165793          	srli	a5,a2,0x1
    1f80:	8436                	mv	s0,a3
    1f82:	b72d                	j	1eac <__subsf3+0xee>
    1f84:	06d05b63          	blez	a3,1ffa <__subsf3+0x23c>
    1f88:	e531                	bnez	a0,1fd4 <__subsf3+0x216>
    1f8a:	16078263          	beqz	a5,20ee <__subsf3+0x330>
    1f8e:	fff68593          	addi	a1,a3,-1
    1f92:	e589                	bnez	a1,1f9c <__subsf3+0x1de>
    1f94:	40f607b3          	sub	a5,a2,a5
    1f98:	4405                	li	s0,1
    1f9a:	a025                	j	1fc2 <__subsf3+0x204>
    1f9c:	ee6689e3          	beq	a3,t1,1e8e <__subsf3+0xd0>
    1fa0:	456d                	li	a0,27
    1fa2:	4685                	li	a3,1
    1fa4:	00b54d63          	blt	a0,a1,1fbe <__subsf3+0x200>
    1fa8:	02000693          	li	a3,32
    1fac:	8e8d                	sub	a3,a3,a1
    1fae:	00b7d533          	srl	a0,a5,a1
    1fb2:	00d797b3          	sll	a5,a5,a3
    1fb6:	00f037b3          	snez	a5,a5
    1fba:	00f566b3          	or	a3,a0,a5
    1fbe:	40d607b3          	sub	a5,a2,a3
    1fc2:	040004b7          	lui	s1,0x4000
    1fc6:	0097f6b3          	and	a3,a5,s1
    1fca:	ee0681e3          	beqz	a3,1eac <__subsf3+0xee>
    1fce:	14fd                	addi	s1,s1,-1 # 3ffffff <_data_lma+0x3ffd03b>
    1fd0:	8cfd                	and	s1,s1,a5
    1fd2:	a8f1                	j	20ae <__subsf3+0x2f0>
    1fd4:	10640f63          	beq	s0,t1,20f2 <__subsf3+0x334>
    1fd8:	040005b7          	lui	a1,0x4000
    1fdc:	8fcd                	or	a5,a5,a1
    1fde:	85b6                	mv	a1,a3
    1fe0:	b7c1                	j	1fa0 <__subsf3+0x1e2>
    1fe2:	cab5                	beqz	a3,2056 <__subsf3+0x298>
    1fe4:	c805                	beqz	s0,2014 <__subsf3+0x256>
    1fe6:	0ff00413          	li	s0,255
    1fea:	872e                	mv	a4,a1
    1fec:	b5c1                	j	1eac <__subsf3+0xee>
    1fee:	c6a5                	beqz	a3,2056 <__subsf3+0x298>
    1ff0:	c415                	beqz	s0,201c <__subsf3+0x25e>
    1ff2:	0ff00413          	li	s0,255
    1ff6:	8716                	mv	a4,t0
    1ff8:	b51d                	j	1e1e <__subsf3+0x60>
    1ffa:	ceb1                	beqz	a3,2056 <__subsf3+0x298>
    1ffc:	408505b3          	sub	a1,a0,s0
    2000:	e431                	bnez	s0,204c <__subsf3+0x28e>
    2002:	8716                	mv	a4,t0
    2004:	842e                	mv	s0,a1
    2006:	ea0603e3          	beqz	a2,1eac <__subsf3+0xee>
    200a:	fff40593          	addi	a1,s0,-1
    200e:	e989                	bnez	a1,2020 <__subsf3+0x262>
    2010:	8f91                	sub	a5,a5,a2
    2012:	b759                	j	1f98 <__subsf3+0x1da>
    2014:	872e                	mv	a4,a1
    2016:	0ff00413          	li	s0,255
    201a:	b7f5                	j	2006 <__subsf3+0x248>
    201c:	8716                	mv	a4,t0
    201e:	bfe5                	j	2016 <__subsf3+0x258>
    2020:	0ff00693          	li	a3,255
    2024:	e8d404e3          	beq	s0,a3,1eac <__subsf3+0xee>
    2028:	436d                	li	t1,27
    202a:	4685                	li	a3,1
    202c:	00b34d63          	blt	t1,a1,2046 <__subsf3+0x288>
    2030:	02000693          	li	a3,32
    2034:	8e8d                	sub	a3,a3,a1
    2036:	00d616b3          	sll	a3,a2,a3
    203a:	00b65333          	srl	t1,a2,a1
    203e:	00d036b3          	snez	a3,a3
    2042:	00d366b3          	or	a3,t1,a3
    2046:	8f95                	sub	a5,a5,a3
    2048:	842a                	mv	s0,a0
    204a:	bfa5                	j	1fc2 <__subsf3+0x204>
    204c:	04000737          	lui	a4,0x4000
    2050:	8e59                	or	a2,a2,a4
    2052:	8716                	mv	a4,t0
    2054:	bfd1                	j	2028 <__subsf3+0x26a>
    2056:	00140693          	addi	a3,s0,1
    205a:	0fe6f693          	andi	a3,a3,254
    205e:	ee9d                	bnez	a3,209c <__subsf3+0x2de>
    2060:	e01d                	bnez	s0,2086 <__subsf3+0x2c8>
    2062:	e601                	bnez	a2,206a <__subsf3+0x2ac>
    2064:	cbc5                	beqz	a5,2114 <__subsf3+0x356>
    2066:	8716                	mv	a4,t0
    2068:	b591                	j	1eac <__subsf3+0xee>
    206a:	c7c1                	beqz	a5,20f2 <__subsf3+0x334>
    206c:	40f604b3          	sub	s1,a2,a5
    2070:	040006b7          	lui	a3,0x4000
    2074:	8ee5                	and	a3,a3,s1
    2076:	c299                	beqz	a3,207c <__subsf3+0x2be>
    2078:	8f91                	sub	a5,a5,a2
    207a:	b7f5                	j	2066 <__subsf3+0x2a8>
    207c:	87a6                	mv	a5,s1
    207e:	e20497e3          	bnez	s1,1eac <__subsf3+0xee>
    2082:	4701                	li	a4,0
    2084:	bb75                	j	1e40 <__subsf3+0x82>
    2086:	ee0614e3          	bnez	a2,1f6e <__subsf3+0x1b0>
    208a:	8716                	mv	a4,t0
    208c:	e00792e3          	bnez	a5,1e90 <__subsf3+0xd2>
    2090:	4701                	li	a4,0
    2092:	0ff00413          	li	s0,255
    2096:	004004b7          	lui	s1,0x400
    209a:	b35d                	j	1e40 <__subsf3+0x82>
    209c:	40f604b3          	sub	s1,a2,a5
    20a0:	040006b7          	lui	a3,0x4000
    20a4:	8ee5                	and	a3,a3,s1
    20a6:	ca9d                	beqz	a3,20dc <__subsf3+0x31e>
    20a8:	40c784b3          	sub	s1,a5,a2
    20ac:	8716                	mv	a4,t0
    20ae:	8526                	mv	a0,s1
    20b0:	c03a                	sw	a4,0(sp)
    20b2:	2ee1                	jal	248a <__clzsi2>
    20b4:	156d                	addi	a0,a0,-5
    20b6:	4702                	lw	a4,0(sp)
    20b8:	00a494b3          	sll	s1,s1,a0
    20bc:	02854363          	blt	a0,s0,20e2 <__subsf3+0x324>
    20c0:	8d01                	sub	a0,a0,s0
    20c2:	0505                	addi	a0,a0,1
    20c4:	02000693          	li	a3,32
    20c8:	8e89                	sub	a3,a3,a0
    20ca:	00a4d7b3          	srl	a5,s1,a0
    20ce:	00d494b3          	sll	s1,s1,a3
    20d2:	009034b3          	snez	s1,s1
    20d6:	8fc5                	or	a5,a5,s1
    20d8:	4401                	li	s0,0
    20da:	bbc9                	j	1eac <__subsf3+0xee>
    20dc:	f8e9                	bnez	s1,20ae <__subsf3+0x2f0>
    20de:	4401                	li	s0,0
    20e0:	b74d                	j	2082 <__subsf3+0x2c4>
    20e2:	fc0007b7          	lui	a5,0xfc000
    20e6:	17fd                	addi	a5,a5,-1 # fbffffff <__global_pointer$+0xdbfff7ff>
    20e8:	8c09                	sub	s0,s0,a0
    20ea:	8fe5                	and	a5,a5,s1
    20ec:	b3c1                	j	1eac <__subsf3+0xee>
    20ee:	87b2                	mv	a5,a2
    20f0:	bd41                	j	1f80 <__subsf3+0x1c2>
    20f2:	87b2                	mv	a5,a2
    20f4:	bb65                	j	1eac <__subsf3+0xee>
    20f6:	0037d493          	srli	s1,a5,0x3
    20fa:	0ff00793          	li	a5,255
    20fe:	d4f411e3          	bne	s0,a5,1e40 <__subsf3+0x82>
    2102:	d2048fe3          	beqz	s1,1e40 <__subsf3+0x82>
    2106:	004004b7          	lui	s1,0x400
    210a:	bfa5                	j	2082 <__subsf3+0x2c4>
    210c:	0ff00413          	li	s0,255
    2110:	4481                	li	s1,0
    2112:	b33d                	j	1e40 <__subsf3+0x82>
    2114:	4481                	li	s1,0
    2116:	b7b5                	j	2082 <__subsf3+0x2c4>

00002118 <__fixsfsi>:
    2118:	00800637          	lui	a2,0x800
    211c:	01755713          	srli	a4,a0,0x17
    2120:	fff60793          	addi	a5,a2,-1 # 7fffff <_data_lma+0x7fd03b>
    2124:	0ff77713          	zext.b	a4,a4
    2128:	07e00593          	li	a1,126
    212c:	8fe9                	and	a5,a5,a0
    212e:	01f55693          	srli	a3,a0,0x1f
    2132:	04e5d063          	bge	a1,a4,2172 <__fixsfsi+0x5a>
    2136:	09d00593          	li	a1,157
    213a:	00e5d863          	bge	a1,a4,214a <__fixsfsi+0x32>
    213e:	80000537          	lui	a0,0x80000
    2142:	fff54513          	not	a0,a0
    2146:	9536                	add	a0,a0,a3
    2148:	8082                	ret
    214a:	00c7e533          	or	a0,a5,a2
    214e:	09500793          	li	a5,149
    2152:	00e7da63          	bge	a5,a4,2166 <__fixsfsi+0x4e>
    2156:	f6a70713          	addi	a4,a4,-150 # 3ffff6a <_data_lma+0x3ffcfa6>
    215a:	00e51533          	sll	a0,a0,a4
    215e:	ca99                	beqz	a3,2174 <__fixsfsi+0x5c>
    2160:	40a00533          	neg	a0,a0
    2164:	8082                	ret
    2166:	09600793          	li	a5,150
    216a:	8f99                	sub	a5,a5,a4
    216c:	00f55533          	srl	a0,a0,a5
    2170:	b7fd                	j	215e <__fixsfsi+0x46>
    2172:	4501                	li	a0,0
    2174:	8082                	ret

00002176 <__floatsisf>:
    2176:	1151                	addi	sp,sp,-12
    2178:	c406                	sw	ra,8(sp)
    217a:	c222                	sw	s0,4(sp)
    217c:	c026                	sw	s1,0(sp)
    217e:	c54d                	beqz	a0,2228 <insomniac.c.e51033ff+0x51>
    2180:	41f55793          	srai	a5,a0,0x1f
    2184:	00a7c433          	xor	s0,a5,a0
    2188:	8c1d                	sub	s0,s0,a5
    218a:	01f55493          	srli	s1,a0,0x1f
    218e:	8522                	mv	a0,s0
    2190:	2ced                	jal	248a <__clzsi2>
    2192:	87aa                	mv	a5,a0
    2194:	09e00513          	li	a0,158
    2198:	8d1d                	sub	a0,a0,a5
    219a:	09600713          	li	a4,150
    219e:	02a74363          	blt	a4,a0,21c4 <__floatsisf+0x4e>
    21a2:	4721                	li	a4,8
    21a4:	08e78563          	beq	a5,a4,222e <insomniac.c.e51033ff+0x57>
    21a8:	17e1                	addi	a5,a5,-8
    21aa:	00f41433          	sll	s0,s0,a5
    21ae:	0426                	slli	s0,s0,0x9
    21b0:	8025                	srli	s0,s0,0x9
    21b2:	055e                	slli	a0,a0,0x17
    21b4:	40a2                	lw	ra,8(sp)
    21b6:	8d41                	or	a0,a0,s0
    21b8:	4412                	lw	s0,4(sp)
    21ba:	04fe                	slli	s1,s1,0x1f
    21bc:	8d45                	or	a0,a0,s1
    21be:	4482                	lw	s1,0(sp)
    21c0:	0131                	addi	sp,sp,12
    21c2:	8082                	ret
    21c4:	09900713          	li	a4,153
    21c8:	04a75863          	bge	a4,a0,2218 <insomniac.c.e51033ff+0x41>
    21cc:	4695                	li	a3,5
    21ce:	01b78713          	addi	a4,a5,27
    21d2:	00e41733          	sll	a4,s0,a4
    21d6:	8e9d                	sub	a3,a3,a5
    21d8:	00d456b3          	srl	a3,s0,a3
    21dc:	00e03733          	snez	a4,a4
    21e0:	00e6e433          	or	s0,a3,a4
    21e4:	fc000737          	lui	a4,0xfc000
    21e8:	177d                	addi	a4,a4,-1 # fbffffff <__global_pointer$+0xdbfff7ff>
    21ea:	00747693          	andi	a3,s0,7
    21ee:	8f61                	and	a4,a4,s0
    21f0:	c691                	beqz	a3,21fc <insomniac.c.e51033ff+0x25>
    21f2:	883d                	andi	s0,s0,15
    21f4:	4691                	li	a3,4
    21f6:	00d40363          	beq	s0,a3,21fc <insomniac.c.e51033ff+0x25>
    21fa:	0711                	addi	a4,a4,4
    21fc:	040006b7          	lui	a3,0x4000
    2200:	8ef9                	and	a3,a3,a4
    2202:	ca81                	beqz	a3,2212 <insomniac.c.e51033ff+0x3b>
    2204:	fc0006b7          	lui	a3,0xfc000
    2208:	16fd                	addi	a3,a3,-1 # fbffffff <__global_pointer$+0xdbfff7ff>
    220a:	09f00513          	li	a0,159
    220e:	8f75                	and	a4,a4,a3
    2210:	8d1d                	sub	a0,a0,a5
    2212:	00375413          	srli	s0,a4,0x3
    2216:	bf61                	j	21ae <__floatsisf+0x38>
    2218:	4695                	li	a3,5
    221a:	ffb78713          	addi	a4,a5,-5
    221e:	fcd783e3          	beq	a5,a3,21e4 <insomniac.c.e51033ff+0xd>
    2222:	00e41433          	sll	s0,s0,a4
    2226:	bf7d                	j	21e4 <insomniac.c.e51033ff+0xd>
    2228:	4481                	li	s1,0
    222a:	4401                	li	s0,0
    222c:	b749                	j	21ae <__floatsisf+0x38>
    222e:	09600513          	li	a0,150
    2232:	bfb5                	j	21ae <__floatsisf+0x38>

00002234 <__extendsfdf2>:
    2234:	01755713          	srli	a4,a0,0x17
    2238:	0ff77713          	zext.b	a4,a4
    223c:	1151                	addi	sp,sp,-12
    223e:	00170793          	addi	a5,a4,1
    2242:	c222                	sw	s0,4(sp)
    2244:	c026                	sw	s1,0(sp)
    2246:	00951413          	slli	s0,a0,0x9
    224a:	c406                	sw	ra,8(sp)
    224c:	0fe7f793          	andi	a5,a5,254
    2250:	8025                	srli	s0,s0,0x9
    2252:	01f55493          	srli	s1,a0,0x1f
    2256:	c785                	beqz	a5,227e <__extendsfdf2+0x4a>
    2258:	00345793          	srli	a5,s0,0x3
    225c:	38070713          	addi	a4,a4,896
    2260:	0476                	slli	s0,s0,0x1d
    2262:	07b2                	slli	a5,a5,0xc
    2264:	40a2                	lw	ra,8(sp)
    2266:	83b1                	srli	a5,a5,0xc
    2268:	8522                	mv	a0,s0
    226a:	0752                	slli	a4,a4,0x14
    226c:	4412                	lw	s0,4(sp)
    226e:	04fe                	slli	s1,s1,0x1f
    2270:	8f5d                	or	a4,a4,a5
    2272:	009767b3          	or	a5,a4,s1
    2276:	85be                	mv	a1,a5
    2278:	4482                	lw	s1,0(sp)
    227a:	0131                	addi	sp,sp,12
    227c:	8082                	ret
    227e:	eb15                	bnez	a4,22b2 <__extendsfdf2+0x7e>
    2280:	4781                	li	a5,0
    2282:	d065                	beqz	s0,2262 <__extendsfdf2+0x2e>
    2284:	8522                	mv	a0,s0
    2286:	2411                	jal	248a <__clzsi2>
    2288:	47a9                	li	a5,10
    228a:	00a7ce63          	blt	a5,a0,22a6 <__extendsfdf2+0x72>
    228e:	47ad                	li	a5,11
    2290:	8f89                	sub	a5,a5,a0
    2292:	01550713          	addi	a4,a0,21 # 80000015 <__global_pointer$+0x5ffff815>
    2296:	00f457b3          	srl	a5,s0,a5
    229a:	00e41433          	sll	s0,s0,a4
    229e:	38900713          	li	a4,905
    22a2:	8f09                	sub	a4,a4,a0
    22a4:	bf7d                	j	2262 <__extendsfdf2+0x2e>
    22a6:	ff550793          	addi	a5,a0,-11
    22aa:	00f417b3          	sll	a5,s0,a5
    22ae:	4401                	li	s0,0
    22b0:	b7fd                	j	229e <__extendsfdf2+0x6a>
    22b2:	4781                	li	a5,0
    22b4:	c419                	beqz	s0,22c2 <__extendsfdf2+0x8e>
    22b6:	00345793          	srli	a5,s0,0x3
    22ba:	00080737          	lui	a4,0x80
    22be:	0476                	slli	s0,s0,0x1d
    22c0:	8fd9                	or	a5,a5,a4
    22c2:	7ff00713          	li	a4,2047
    22c6:	bf71                	j	2262 <__extendsfdf2+0x2e>

000022c8 <__truncdfsf2>:
    22c8:	00c59713          	slli	a4,a1,0xc
    22cc:	0145d313          	srli	t1,a1,0x14
    22d0:	8325                	srli	a4,a4,0x9
    22d2:	7ff37313          	andi	t1,t1,2047
    22d6:	01d55793          	srli	a5,a0,0x1d
    22da:	8fd9                	or	a5,a5,a4
    22dc:	00130713          	addi	a4,t1,1 # 800001 <_data_lma+0x7fd03d>
    22e0:	7fe77713          	andi	a4,a4,2046
    22e4:	81fd                	srli	a1,a1,0x1f
    22e6:	00351613          	slli	a2,a0,0x3
    22ea:	c74d                	beqz	a4,2394 <__truncdfsf2+0xcc>
    22ec:	c8030693          	addi	a3,t1,-896
    22f0:	0fe00713          	li	a4,254
    22f4:	0ed74b63          	blt	a4,a3,23ea <__truncdfsf2+0x122>
    22f8:	08d04063          	bgtz	a3,2378 <__truncdfsf2+0xb0>
    22fc:	5725                	li	a4,-23
    22fe:	0ee6c963          	blt	a3,a4,23f0 <__truncdfsf2+0x128>
    2302:	008002b7          	lui	t0,0x800
    2306:	4779                	li	a4,30
    2308:	0057e2b3          	or	t0,a5,t0
    230c:	8f15                	sub	a4,a4,a3
    230e:	47fd                	li	a5,31
    2310:	02e7ce63          	blt	a5,a4,234c <__truncdfsf2+0x84>
    2314:	c8230313          	addi	t1,t1,-894
    2318:	00e65733          	srl	a4,a2,a4
    231c:	00661633          	sll	a2,a2,t1
    2320:	00c03633          	snez	a2,a2
    2324:	00629333          	sll	t1,t0,t1
    2328:	00666633          	or	a2,a2,t1
    232c:	8f51                	or	a4,a4,a2
    232e:	00777793          	andi	a5,a4,7
    2332:	efad                	bnez	a5,23ac <__truncdfsf2+0xe4>
    2334:	00375793          	srli	a5,a4,0x3
    2338:	4681                	li	a3,0
    233a:	07a6                	slli	a5,a5,0x9
    233c:	01769513          	slli	a0,a3,0x17
    2340:	83a5                	srli	a5,a5,0x9
    2342:	8fc9                	or	a5,a5,a0
    2344:	01f59513          	slli	a0,a1,0x1f
    2348:	8d5d                	or	a0,a0,a5
    234a:	8082                	ret
    234c:	57f9                	li	a5,-2
    234e:	8f95                	sub	a5,a5,a3
    2350:	02000513          	li	a0,32
    2354:	00f2d7b3          	srl	a5,t0,a5
    2358:	4681                	li	a3,0
    235a:	00a70663          	beq	a4,a0,2366 <__truncdfsf2+0x9e>
    235e:	ca230693          	addi	a3,t1,-862
    2362:	00d296b3          	sll	a3,t0,a3
    2366:	8ed1                	or	a3,a3,a2
    2368:	00d036b3          	snez	a3,a3
    236c:	8fd5                	or	a5,a5,a3
    236e:	0077f713          	andi	a4,a5,7
    2372:	e721                	bnez	a4,23ba <__truncdfsf2+0xf2>
    2374:	838d                	srli	a5,a5,0x3
    2376:	b7c9                	j	2338 <__truncdfsf2+0x70>
    2378:	00651713          	slli	a4,a0,0x6
    237c:	078e                	slli	a5,a5,0x3
    237e:	00e03733          	snez	a4,a4
    2382:	8f5d                	or	a4,a4,a5
    2384:	8275                	srli	a2,a2,0x1d
    2386:	8f51                	or	a4,a4,a2
    2388:	00777793          	andi	a5,a4,7
    238c:	ef95                	bnez	a5,23c8 <__truncdfsf2+0x100>
    238e:	00375793          	srli	a5,a4,0x3
    2392:	b765                	j	233a <__truncdfsf2+0x72>
    2394:	04030e63          	beqz	t1,23f0 <__truncdfsf2+0x128>
    2398:	8fd1                	or	a5,a5,a2
    239a:	0ff00693          	li	a3,255
    239e:	dfd1                	beqz	a5,233a <__truncdfsf2+0x72>
    23a0:	4581                	li	a1,0
    23a2:	0ff00693          	li	a3,255
    23a6:	004007b7          	lui	a5,0x400
    23aa:	bf41                	j	233a <__truncdfsf2+0x72>
    23ac:	00f77793          	andi	a5,a4,15
    23b0:	4691                	li	a3,4
    23b2:	f8d781e3          	beq	a5,a3,2334 <__truncdfsf2+0x6c>
    23b6:	4681                	li	a3,0
    23b8:	a839                	j	23d6 <__truncdfsf2+0x10e>
    23ba:	00f7f713          	andi	a4,a5,15
    23be:	4691                	li	a3,4
    23c0:	fad70ae3          	beq	a4,a3,2374 <__truncdfsf2+0xac>
    23c4:	0791                	addi	a5,a5,4 # 400004 <_data_lma+0x3fd040>
    23c6:	b77d                	j	2374 <__truncdfsf2+0xac>
    23c8:	00f77313          	andi	t1,a4,15
    23cc:	4291                	li	t0,4
    23ce:	00375793          	srli	a5,a4,0x3
    23d2:	f65304e3          	beq	t1,t0,233a <__truncdfsf2+0x72>
    23d6:	00470793          	addi	a5,a4,4 # 80004 <_data_lma+0x7d040>
    23da:	04000737          	lui	a4,0x4000
    23de:	8f7d                	and	a4,a4,a5
    23e0:	838d                	srli	a5,a5,0x3
    23e2:	df21                	beqz	a4,233a <__truncdfsf2+0x72>
    23e4:	0685                	addi	a3,a3,1
    23e6:	4781                	li	a5,0
    23e8:	bf89                	j	233a <__truncdfsf2+0x72>
    23ea:	0ff00693          	li	a3,255
    23ee:	bfe5                	j	23e6 <__truncdfsf2+0x11e>
    23f0:	4681                	li	a3,0
    23f2:	bfd5                	j	23e6 <__truncdfsf2+0x11e>

000023f4 <__mulsi3>:
    23f4:	862a                	mv	a2,a0
    23f6:	4501                	li	a0,0
    23f8:	0015f693          	andi	a3,a1,1
    23fc:	c291                	beqz	a3,2400 <__mulsi3+0xc>
    23fe:	9532                	add	a0,a0,a2
    2400:	8185                	srli	a1,a1,0x1
    2402:	0606                	slli	a2,a2,0x1
    2404:	f9f5                	bnez	a1,23f8 <__mulsi3+0x4>
    2406:	8082                	ret
    2408:	0000                	unimp
	...

0000240c <__divsi3>:
    240c:	02054e63          	bltz	a0,2448 <__umodsi3+0x8>
    2410:	0405c363          	bltz	a1,2456 <__umodsi3+0x16>

00002414 <__hidden___udivsi3>:
    2414:	862e                	mv	a2,a1
    2416:	85aa                	mv	a1,a0
    2418:	557d                	li	a0,-1
    241a:	c215                	beqz	a2,243e <__hidden___udivsi3+0x2a>
    241c:	4685                	li	a3,1
    241e:	00b67863          	bgeu	a2,a1,242e <__hidden___udivsi3+0x1a>
    2422:	00c05663          	blez	a2,242e <__hidden___udivsi3+0x1a>
    2426:	0606                	slli	a2,a2,0x1
    2428:	0686                	slli	a3,a3,0x1
    242a:	feb66ce3          	bltu	a2,a1,2422 <__hidden___udivsi3+0xe>
    242e:	4501                	li	a0,0
    2430:	00c5e463          	bltu	a1,a2,2438 <__hidden___udivsi3+0x24>
    2434:	8d91                	sub	a1,a1,a2
    2436:	8d55                	or	a0,a0,a3
    2438:	8285                	srli	a3,a3,0x1
    243a:	8205                	srli	a2,a2,0x1
    243c:	faf5                	bnez	a3,2430 <__hidden___udivsi3+0x1c>
    243e:	8082                	ret

00002440 <__umodsi3>:
    2440:	8286                	mv	t0,ra
    2442:	3fc9                	jal	2414 <__hidden___udivsi3>
    2444:	852e                	mv	a0,a1
    2446:	8282                	jr	t0
    2448:	40a00533          	neg	a0,a0
    244c:	00b04763          	bgtz	a1,245a <__umodsi3+0x1a>
    2450:	40b005b3          	neg	a1,a1
    2454:	b7c1                	j	2414 <__hidden___udivsi3>
    2456:	40b005b3          	neg	a1,a1
    245a:	8286                	mv	t0,ra
    245c:	3f65                	jal	2414 <__hidden___udivsi3>
    245e:	40a00533          	neg	a0,a0
    2462:	8282                	jr	t0

00002464 <__modsi3>:
    2464:	8286                	mv	t0,ra
    2466:	0005c763          	bltz	a1,2474 <__modsi3+0x10>
    246a:	00054963          	bltz	a0,247c <__modsi3+0x18>
    246e:	375d                	jal	2414 <__hidden___udivsi3>
    2470:	852e                	mv	a0,a1
    2472:	8282                	jr	t0
    2474:	40b005b3          	neg	a1,a1
    2478:	fe055be3          	bgez	a0,246e <__modsi3+0xa>
    247c:	40a00533          	neg	a0,a0
    2480:	3f51                	jal	2414 <__hidden___udivsi3>
    2482:	40b00533          	neg	a0,a1
    2486:	8282                	jr	t0
	...

0000248a <__clzsi2>:
    248a:	67c1                	lui	a5,0x10
    248c:	02f57563          	bgeu	a0,a5,24b6 <__clzsi2+0x2c>
    2490:	10053793          	sltiu	a5,a0,256
    2494:	0017c793          	xori	a5,a5,1
    2498:	078e                	slli	a5,a5,0x3
    249a:	670d                	lui	a4,0x3
    249c:	02000693          	li	a3,32
    24a0:	8e9d                	sub	a3,a3,a5
    24a2:	00f55533          	srl	a0,a0,a5
    24a6:	e8c70793          	addi	a5,a4,-372 # 2e8c <__clz_tab>
    24aa:	97aa                	add	a5,a5,a0
    24ac:	0007c503          	lbu	a0,0(a5) # 10000 <_data_lma+0xd03c>
    24b0:	40a68533          	sub	a0,a3,a0
    24b4:	8082                	ret
    24b6:	01000737          	lui	a4,0x1000
    24ba:	47c1                	li	a5,16
    24bc:	fce56fe3          	bltu	a0,a4,249a <__clzsi2+0x10>
    24c0:	47e1                	li	a5,24
    24c2:	bfe1                	j	249a <__clzsi2+0x10>

000024c4 <mini_pad>:
	if(pad_to == 0) pad_to = len;
    24c4:	c699                	beqz	a3,24d2 <mini_pad+0xe>
	int overflow = 0;
    24c6:	4301                	li	t1,0
	if(len > pad_to) {
    24c8:	00b6d763          	bge	a3,a1,24d6 <mini_pad+0x12>
		len = pad_to;
    24cc:	85b6                	mv	a1,a3
		overflow = 1;
    24ce:	4305                	li	t1,1
    24d0:	a019                	j	24d6 <mini_pad+0x12>
	int overflow = 0;
    24d2:	4301                	li	t1,0
	if(pad_to == 0) pad_to = len;
    24d4:	86ae                	mv	a3,a1
	for(i = pad_to - len; i > 0; i --) {
    24d6:	8e8d                	sub	a3,a3,a1
	char * pbuffer = buffer;
    24d8:	87ba                	mv	a5,a4
    24da:	00e683b3          	add	t2,a3,a4
	for(i = pad_to - len; i > 0; i --) {
    24de:	40f382b3          	sub	t0,t2,a5
    24e2:	04504a63          	bgtz	t0,2536 <mini_pad+0x72>
    24e6:	fff6c793          	not	a5,a3
    24ea:	87fd                	srai	a5,a5,0x1f
    24ec:	8efd                	and	a3,a3,a5
    24ee:	96ba                	add	a3,a3,a4
    24f0:	4781                	li	a5,0
	for(i = len; i > 0; i --) {
    24f2:	40f58633          	sub	a2,a1,a5
    24f6:	00f682b3          	add	t0,a3,a5
    24fa:	04c04263          	bgtz	a2,253e <mini_pad+0x7a>
    24fe:	fff5c793          	not	a5,a1
    2502:	87fd                	srai	a5,a5,0x1f
    2504:	8dfd                	and	a1,a1,a5
    2506:	95b6                	add	a1,a1,a3
	len = pbuffer - buffer;
    2508:	40e58533          	sub	a0,a1,a4
	if(overflow) {
    250c:	02030463          	beqz	t1,2534 <mini_pad+0x70>
		for (i = 0; i < 3 && pbuffer > buffer; i ++) {
    2510:	02b77263          	bgeu	a4,a1,2534 <mini_pad+0x70>
			*(pbuffer-- - 1) = '*';
    2514:	02a00793          	li	a5,42
    2518:	fef58fa3          	sb	a5,-1(a1) # 3ffffff <_data_lma+0x3ffd03b>
    251c:	fff58693          	addi	a3,a1,-1
		for (i = 0; i < 3 && pbuffer > buffer; i ++) {
    2520:	00d77a63          	bgeu	a4,a3,2534 <mini_pad+0x70>
			*(pbuffer-- - 1) = '*';
    2524:	fef58f23          	sb	a5,-2(a1)
    2528:	ffe58693          	addi	a3,a1,-2
		for (i = 0; i < 3 && pbuffer > buffer; i ++) {
    252c:	00d77463          	bgeu	a4,a3,2534 <mini_pad+0x70>
			*(pbuffer-- - 1) = '*';
    2530:	fef58ea3          	sb	a5,-3(a1)
}
    2534:	8082                	ret
		*(pbuffer++) = pad_char;
    2536:	0785                	addi	a5,a5,1
    2538:	fec78fa3          	sb	a2,-1(a5)
	for(i = pad_to - len; i > 0; i --) {
    253c:	b74d                	j	24de <mini_pad+0x1a>
		*(pbuffer++) = *(ptr++);
    253e:	00f50633          	add	a2,a0,a5
    2542:	00064603          	lbu	a2,0(a2)
    2546:	0785                	addi	a5,a5,1
    2548:	00c28023          	sb	a2,0(t0) # 800000 <_data_lma+0x7fd03c>
	for(i = len; i > 0; i --) {
    254c:	b75d                	j	24f2 <mini_pad+0x2e>

0000254e <_puts>:
{
    254e:	832a                	mv	t1,a0
    2550:	852e                	mv	a0,a1
	if(!buf) return len;
    2552:	ce01                	beqz	a2,256a <_puts+0x1c>
	char * p0 = b->buffer;
    2554:	00062283          	lw	t0,0(a2)
	for (i = 0; i < len; i++) {
    2558:	4701                	li	a4,0
		if(b->pbuffer == b->buffer + b->buffer_len - 1) {
    255a:	425c                	lw	a5,4(a2)
	for (i = 0; i < len; i++) {
    255c:	00a74863          	blt	a4,a0,256c <_puts+0x1e>
	*(b->pbuffer) = 0;
    2560:	00078023          	sb	zero,0(a5)
	return b->pbuffer - p0;
    2564:	4248                	lw	a0,4(a2)
    2566:	40550533          	sub	a0,a0,t0
}
    256a:	8082                	ret
		if(b->pbuffer == b->buffer + b->buffer_len - 1) {
    256c:	460c                	lw	a1,8(a2)
    256e:	4214                	lw	a3,0(a2)
    2570:	15fd                	addi	a1,a1,-1
    2572:	96ae                	add	a3,a3,a1
    2574:	fed786e3          	beq	a5,a3,2560 <_puts+0x12>
		*(b->pbuffer ++) = s[i];
    2578:	00178693          	addi	a3,a5,1
    257c:	c254                	sw	a3,4(a2)
    257e:	00e306b3          	add	a3,t1,a4
    2582:	0006c683          	lbu	a3,0(a3)
	for (i = 0; i < len; i++) {
    2586:	0705                	addi	a4,a4,1 # 1000001 <_data_lma+0xffd03d>
		*(b->pbuffer ++) = s[i];
    2588:	00d78023          	sb	a3,0(a5)
	for (i = 0; i < len; i++) {
    258c:	b7f9                	j	255a <_puts+0xc>

0000258e <mini_itoa.part.0>:
mini_itoa(long value, unsigned int radix, int uppercase, int unsig,
    258e:	1101                	addi	sp,sp,-32
    2590:	ce06                	sw	ra,28(sp)
    2592:	cc22                	sw	s0,24(sp)
    2594:	ca26                	sw	s1,20(sp)
	int	negative = 0;
    2596:	c002                	sw	zero,0(sp)
mini_itoa(long value, unsigned int radix, int uppercase, int unsig,
    2598:	832a                	mv	t1,a0
	if (value < 0 && !unsig) {
    259a:	00055763          	bgez	a0,25a8 <mini_itoa.part.0+0x1a>
    259e:	e689                	bnez	a3,25a8 <mini_itoa.part.0+0x1a>
		negative = 1;
    25a0:	4785                	li	a5,1
		value = -value;
    25a2:	40a00333          	neg	t1,a0
		negative = 1;
    25a6:	c03e                	sw	a5,0(sp)
    25a8:	8a05                	andi	a2,a2,1
    25aa:	06100413          	li	s0,97
    25ae:	c219                	beqz	a2,25b4 <mini_itoa.part.0+0x26>
    25b0:	04100413          	li	s0,65
	int	negative = 0;
    25b4:	84ba                	mv	s1,a4
		*(pbuffer++) = (digit < 10 ? '0' + digit : (uppercase ? 'A' : 'a') + digit - 10);
    25b6:	1459                	addi	s0,s0,-10
		int digit = value % radix;
    25b8:	851a                	mv	a0,t1
    25ba:	c83a                	sw	a4,16(sp)
    25bc:	c21a                	sw	t1,4(sp)
    25be:	c62e                	sw	a1,12(sp)
    25c0:	c41a                	sw	t1,8(sp)
    25c2:	3dbd                	jal	2440 <__umodsi3>
		*(pbuffer++) = (digit < 10 ? '0' + digit : (uppercase ? 'A' : 'a') + digit - 10);
    25c4:	47a5                	li	a5,9
    25c6:	4322                	lw	t1,8(sp)
    25c8:	45b2                	lw	a1,12(sp)
    25ca:	4742                	lw	a4,16(sp)
    25cc:	0ff57693          	zext.b	a3,a0
    25d0:	06a7e163          	bltu	a5,a0,2632 <mini_itoa.part.0+0xa4>
    25d4:	03068693          	addi	a3,a3,48
    25d8:	0ff6f693          	zext.b	a3,a3
    25dc:	00148793          	addi	a5,s1,1 # 400001 <_data_lma+0x3fd03d>
    25e0:	00d48023          	sb	a3,0(s1)
		value /= radix;
    25e4:	851a                	mv	a0,t1
    25e6:	c83a                	sw	a4,16(sp)
		*(pbuffer++) = (digit < 10 ? '0' + digit : (uppercase ? 'A' : 'a') + digit - 10);
    25e8:	c63e                	sw	a5,12(sp)
		value /= radix;
    25ea:	c42e                	sw	a1,8(sp)
    25ec:	3525                	jal	2414 <__hidden___udivsi3>
	} while (value > 0);
    25ee:	4692                	lw	a3,4(sp)
    25f0:	45a2                	lw	a1,8(sp)
    25f2:	47b2                	lw	a5,12(sp)
    25f4:	4742                	lw	a4,16(sp)
		value /= radix;
    25f6:	832a                	mv	t1,a0
	} while (value > 0);
    25f8:	02b6fb63          	bgeu	a3,a1,262e <mini_itoa.part.0+0xa0>
	if (negative)
    25fc:	4682                	lw	a3,0(sp)
    25fe:	c699                	beqz	a3,260c <mini_itoa.part.0+0x7e>
		*(pbuffer++) = '-';
    2600:	02d00693          	li	a3,45
    2604:	00d78023          	sb	a3,0(a5)
    2608:	00248793          	addi	a5,s1,2
	len = (pbuffer - buffer);
    260c:	40e78533          	sub	a0,a5,a4
	for (i = 0; i < len / 2; i++) {
    2610:	01f55693          	srli	a3,a0,0x1f
    2614:	96aa                	add	a3,a3,a0
	*(pbuffer) = '\0';
    2616:	00078023          	sb	zero,0(a5)
	for (i = 0; i < len / 2; i++) {
    261a:	8685                	srai	a3,a3,0x1
    261c:	4601                	li	a2,0
    261e:	17fd                	addi	a5,a5,-1
    2620:	00d64b63          	blt	a2,a3,2636 <mini_itoa.part.0+0xa8>
}
    2624:	40f2                	lw	ra,28(sp)
    2626:	4462                	lw	s0,24(sp)
    2628:	44d2                	lw	s1,20(sp)
    262a:	6105                	addi	sp,sp,32
    262c:	8082                	ret
		*(pbuffer++) = (digit < 10 ? '0' + digit : (uppercase ? 'A' : 'a') + digit - 10);
    262e:	84be                	mv	s1,a5
    2630:	b761                	j	25b8 <mini_itoa.part.0+0x2a>
    2632:	96a2                	add	a3,a3,s0
    2634:	b755                	j	25d8 <mini_itoa.part.0+0x4a>
		char j = buffer[i];
    2636:	00c705b3          	add	a1,a4,a2
		buffer[i] = buffer[len-i-1];
    263a:	0007c283          	lbu	t0,0(a5)
		char j = buffer[i];
    263e:	0005c303          	lbu	t1,0(a1)
	for (i = 0; i < len / 2; i++) {
    2642:	0605                	addi	a2,a2,1
		buffer[i] = buffer[len-i-1];
    2644:	00558023          	sb	t0,0(a1)
		buffer[len-i-1] = j;
    2648:	00678023          	sb	t1,0(a5)
	for (i = 0; i < len / 2; i++) {
    264c:	bfc9                	j	261e <mini_itoa.part.0+0x90>

0000264e <internal_handle_input.constprop.0>:
void handle_debug_input( int numbytes, uint8_t * data ) __attribute__((weak));
void handle_debug_input( int numbytes, uint8_t * data ) { (void)numbytes; (void)data; }

static void internal_handle_input( volatile uint32_t * dmdata0 )
{
	uint32_t dmd0 = *dmdata0;
    264e:	e00007b7          	lui	a5,0xe0000
    2652:	0f47a783          	lw	a5,244(a5) # e00000f4 <__global_pointer$+0xbffff8f4>
	int bytes = (dmd0 & 0x3f) - 4;
	if( bytes > 0 )
	{
		handle_debug_input( bytes, ((uint8_t*)dmdata0) + 1 );
	}
}
    2656:	8082                	ret

00002658 <_write.constprop.0>:
// where [status word] is:
//   b7 = is a "printf" waiting?
//   b0..b3 = # of bytes in printf (+4).  (5 or higher indicates a print of some kind)
//     note: if b7 is 0 in reply, but b0..b3 have >=4 then we received data from host.
// declare as weak to allow overriding.
WEAK int _write(int fd, const char *buf, int size)
    2658:	1121                	addi	sp,sp,-24
    265a:	c822                	sw	s0,16(sp)
    265c:	ca06                	sw	ra,20(sp)
    265e:	c626                	sw	s1,12(sp)
{
	(void)fd;

	char buffer[4] = { 0 };
    2660:	c402                	sw	zero,8(sp)
WEAK int _write(int fd, const char *buf, int size)
    2662:	842e                	mv	s0,a1
	int place = 0;
	uint32_t lastdmd;
	uint32_t timeout = FUNCONF_DEBUGPRINTF_TIMEOUT; // Give up after ~40ms

	if( size == 0 )
    2664:	eddd                	bnez	a1,2722 <_write.constprop.0+0xca>
	{
		lastdmd = (*DMDATA0);
    2666:	e00007b7          	lui	a5,0xe0000
    266a:	0f47a783          	lw	a5,244(a5) # e00000f4 <__global_pointer$+0xbffff8f4>
		if( lastdmd && !(lastdmd&0x80) ) internal_handle_input( (uint32_t*)DMDATA0 );
    266e:	c789                	beqz	a5,2678 <_write.constprop.0+0x20>
    2670:	0807f793          	andi	a5,a5,128
    2674:	e391                	bnez	a5,2678 <_write.constprop.0+0x20>
    2676:	3fe1                	jal	264e <internal_handle_input.constprop.0>

		//buf += tosend;
		place += tosend;
	}
	return size;
}
    2678:	40d2                	lw	ra,20(sp)
    267a:	8522                	mv	a0,s0
    267c:	4442                	lw	s0,16(sp)
    267e:	44b2                	lw	s1,12(sp)
    2680:	0161                	addi	sp,sp,24
    2682:	8082                	ret
		int tosend = size - place;
    2684:	409407b3          	sub	a5,s0,s1
		if( tosend > 7 ) tosend = 7;
    2688:	471d                	li	a4,7
    268a:	00f75363          	bge	a4,a5,2690 <_write.constprop.0+0x38>
    268e:	87ba                	mv	a5,a4
    2690:	00027737          	lui	a4,0x27
		while( ( lastdmd = (*DMDATA0) ) & 0x80 )
    2694:	e00006b7          	lui	a3,0xe0000
		if( tosend > 7 ) tosend = 7;
    2698:	10170713          	addi	a4,a4,257 # 27101 <_data_lma+0x2413d>
		while( ( lastdmd = (*DMDATA0) ) & 0x80 )
    269c:	0f468693          	addi	a3,a3,244 # e00000f4 <__global_pointer$+0xbffff8f4>
    26a0:	4290                	lw	a2,0(a3)
    26a2:	08067593          	andi	a1,a2,128
    26a6:	e1a5                	bnez	a1,2706 <_write.constprop.0+0xae>
		if( lastdmd ) internal_handle_input( (uint32_t*)DMDATA0 );
    26a8:	c611                	beqz	a2,26b4 <_write.constprop.0+0x5c>
    26aa:	c22a                	sw	a0,4(sp)
    26ac:	c03e                	sw	a5,0(sp)
    26ae:	3745                	jal	264e <internal_handle_input.constprop.0>
    26b0:	4512                	lw	a0,4(sp)
    26b2:	4782                	lw	a5,0(sp)
    26b4:	0034                	addi	a3,sp,8
		if( tosend > 7 ) tosend = 7;
    26b6:	470d                	li	a4,3
    26b8:	85b6                	mv	a1,a3
		while( t < tosend )
    26ba:	04f74a63          	blt	a4,a5,270e <_write.constprop.0+0xb6>
		*DMDATA1 = *(uint32_t*)&(buffer[0]);
    26be:	46a2                	lw	a3,8(sp)
    26c0:	e0000737          	lui	a4,0xe0000
		while( t < tosend && t < 3 )
    26c4:	460d                	li	a2,3
		*DMDATA1 = *(uint32_t*)&(buffer[0]);
    26c6:	0ed72c23          	sw	a3,248(a4) # e00000f8 <__global_pointer$+0xbffff8f8>
    26ca:	009506b3          	add	a3,a0,s1
		t = 0;
    26ce:	4701                	li	a4,0
			buffer[t+1] = buf[t+place];
    26d0:	0006c283          	lbu	t0,0(a3)
    26d4:	0705                	addi	a4,a4,1
    26d6:	00e58333          	add	t1,a1,a4
    26da:	00530023          	sb	t0,0(t1)
		while( t < tosend && t < 3 )
    26de:	00e78563          	beq	a5,a4,26e8 <_write.constprop.0+0x90>
    26e2:	0685                	addi	a3,a3,1
    26e4:	fec716e3          	bne	a4,a2,26d0 <_write.constprop.0+0x78>
		buffer[0] = 0x80 | (tosend + 4);
    26e8:	00478713          	addi	a4,a5,4
    26ec:	f8076713          	ori	a4,a4,-128
    26f0:	00e10423          	sb	a4,8(sp)
		*DMDATA0 = *(uint32_t*)&(buffer[0]);
    26f4:	46a2                	lw	a3,8(sp)
    26f6:	e0000737          	lui	a4,0xe0000
		place += tosend;
    26fa:	94be                	add	s1,s1,a5
		*DMDATA0 = *(uint32_t*)&(buffer[0]);
    26fc:	0ed72a23          	sw	a3,244(a4) # e00000f4 <__global_pointer$+0xbffff8f4>
	while( place < size )
    2700:	f884c2e3          	blt	s1,s0,2684 <_write.constprop.0+0x2c>
    2704:	bf95                	j	2678 <_write.constprop.0+0x20>
			if( timeout-- == 0 ) return place;
    2706:	177d                	addi	a4,a4,-1
    2708:	ff41                	bnez	a4,26a0 <_write.constprop.0+0x48>
    270a:	8426                	mv	s0,s1
    270c:	b7b5                	j	2678 <_write.constprop.0+0x20>
			buffer[t-3] = buf[t+place];
    270e:	00e48633          	add	a2,s1,a4
    2712:	962a                	add	a2,a2,a0
    2714:	00064603          	lbu	a2,0(a2)
			t++;
    2718:	0705                	addi	a4,a4,1
    271a:	0685                	addi	a3,a3,1
			buffer[t-3] = buf[t+place];
    271c:	fec68fa3          	sb	a2,-1(a3)
    2720:	bf69                	j	26ba <_write.constprop.0+0x62>
    2722:	4481                	li	s1,0
    2724:	bff1                	j	2700 <_write.constprop.0+0xa8>

00002726 <__puts_uart>:
{
    2726:	1161                	addi	sp,sp,-8
    2728:	c022                	sw	s0,0(sp)
    272a:	c206                	sw	ra,4(sp)
    272c:	842e                	mv	s0,a1
	_write( 0, s, len );
    272e:	372d                	jal	2658 <_write.constprop.0>
}
    2730:	4092                	lw	ra,4(sp)
    2732:	8522                	mv	a0,s0
    2734:	4402                	lw	s0,0(sp)
    2736:	0121                	addi	sp,sp,8
    2738:	8082                	ret

0000273a <handle_reset>:
	asm volatile( "\n\
    273a:	1fffe197          	auipc	gp,0x1fffe
    273e:	0c618193          	addi	gp,gp,198 # 20000800 <__global_pointer$>
    2742:	00018113          	mv	sp,gp
    2746:	08000513          	li	a0,128
    274a:	30051073          	csrw	mstatus,a0
    274e:	468d                	li	a3,3
    2750:	ffffe517          	auipc	a0,0xffffe
    2754:	8b050513          	addi	a0,a0,-1872 # 0 <InterruptVector>
    2758:	8d55                	or	a0,a0,a3
    275a:	30551073          	csrw	mtvec,a0
asm volatile(
    275e:	85018513          	addi	a0,gp,-1968 # 20000050 <_ebss>
    2762:	85018593          	addi	a1,gp,-1968 # 20000050 <_ebss>
    2766:	4601                	li	a2,0
    2768:	00b55663          	bge	a0,a1,2774 <handle_reset+0x3a>
    276c:	c110                	sw	a2,0(a0)
    276e:	0511                	addi	a0,a0,4
    2770:	feb54ee3          	blt	a0,a1,276c <handle_reset+0x32>
    2774:	00001517          	auipc	a0,0x1
    2778:	85050513          	addi	a0,a0,-1968 # 2fc4 <_data_lma>
    277c:	1fffe597          	auipc	a1,0x1fffe
    2780:	88458593          	addi	a1,a1,-1916 # 20000000 <_data_vma>
    2784:	85018613          	addi	a2,gp,-1968 # 20000050 <_ebss>
    2788:	00c58863          	beq	a1,a2,2798 <handle_reset+0x5e>
    278c:	4114                	lw	a3,0(a0)
    278e:	c194                	sw	a3,0(a1)
    2790:	0511                	addi	a0,a0,4
    2792:	0591                	addi	a1,a1,4
    2794:	fec59ae3          	bne	a1,a2,2788 <handle_reset+0x4e>
	SysTick->CTLR = 1;
    2798:	e000f7b7          	lui	a5,0xe000f
    279c:	4705                	li	a4,1
    279e:	c398                	sw	a4,0(a5)
asm volatile(
    27a0:	678d                	lui	a5,0x3
    27a2:	e0278793          	addi	a5,a5,-510 # 2e02 <main>
    27a6:	34179073          	csrw	mepc,a5
    27aa:	30200073          	mret

000027ae <ADC1_IRQHandler>:
	asm volatile( "1: j 1b" );
    27ae:	a001                	j	27ae <ADC1_IRQHandler>

000027b0 <NMI_Handler>:
	RCC->INTR |= RCC_CSSC;	// clear the clock security int flag
    27b0:	40021737          	lui	a4,0x40021
    27b4:	471c                	lw	a5,8(a4)
    27b6:	008006b7          	lui	a3,0x800
    27ba:	8fd5                	or	a5,a5,a3
    27bc:	c71c                	sw	a5,8(a4)

000027be <strlen>:
WEAK size_t strlen(const char *s) { const char *a = s;for (; *s; s++);return s-a; }
    27be:	87aa                	mv	a5,a0
    27c0:	0007c703          	lbu	a4,0(a5)
    27c4:	e701                	bnez	a4,27cc <strlen+0xe>
    27c6:	40a78533          	sub	a0,a5,a0
    27ca:	8082                	ret
    27cc:	0785                	addi	a5,a5,1
    27ce:	bfcd                	j	27c0 <strlen+0x2>

000027d0 <mini_vpprintf>:
{
    27d0:	fa410113          	addi	sp,sp,-92
    27d4:	caa2                	sw	s0,84(sp)
    27d6:	c8a6                	sw	s1,80(sp)
    27d8:	cc86                	sw	ra,88(sp)
    27da:	c02a                	sw	a0,0(sp)
    27dc:	c22e                	sw	a1,4(sp)
    27de:	8432                	mv	s0,a2
    27e0:	84b6                	mv	s1,a3
	if(puts == (void*)0) {
    27e2:	e511                	bnez	a0,27ee <mini_vpprintf+0x1e>
		puts = _puts; buf = (void*)0;
    27e4:	6789                	lui	a5,0x2
    27e6:	54e78793          	addi	a5,a5,1358 # 254e <_puts>
    27ea:	c202                	sw	zero,4(sp)
    27ec:	c03e                	sw	a5,0(sp)
	int n = 0;
    27ee:	ca02                	sw	zero,20(sp)
	while ((ch=*(fmt++))) {
    27f0:	00044783          	lbu	a5,0(s0)
    27f4:	00140713          	addi	a4,s0,1
    27f8:	00f10fa3          	sb	a5,31(sp)
    27fc:	eb81                	bnez	a5,280c <mini_vpprintf+0x3c>
}
    27fe:	40e6                	lw	ra,88(sp)
    2800:	4456                	lw	s0,84(sp)
    2802:	4552                	lw	a0,20(sp)
    2804:	44c6                	lw	s1,80(sp)
    2806:	05c10113          	addi	sp,sp,92
    280a:	8082                	ret
    280c:	c63a                	sw	a4,12(sp)
		if (ch!='%') {
    280e:	02500693          	li	a3,37
    2812:	02d78063          	beq	a5,a3,2832 <mini_vpprintf+0x62>
			len = puts(&ch, len, buf);
    2816:	4612                	lw	a2,4(sp)
    2818:	4782                	lw	a5,0(sp)
    281a:	4585                	li	a1,1
    281c:	01f10513          	addi	a0,sp,31
    2820:	9782                	jalr	a5
	while ((ch=*(fmt++))) {
    2822:	4732                	lw	a4,12(sp)
    2824:	c426                	sw	s1,8(sp)
    2826:	843a                	mv	s0,a4
		n = n + len;
    2828:	47d2                	lw	a5,20(sp)
    282a:	44a2                	lw	s1,8(sp)
    282c:	97aa                	add	a5,a5,a0
    282e:	ca3e                	sw	a5,20(sp)
    2830:	b7c1                	j	27f0 <mini_vpprintf+0x20>
			ch=*(fmt++);
    2832:	00144783          	lbu	a5,1(s0)
			if (ch == '0') pad_char = '0';
    2836:	03000693          	li	a3,48
			ch=*(fmt++);
    283a:	00240713          	addi	a4,s0,2
    283e:	00f10fa3          	sb	a5,31(sp)
			if (ch == '0') pad_char = '0';
    2842:	c63e                	sw	a5,12(sp)
    2844:	08d79363          	bne	a5,a3,28ca <mini_vpprintf+0xfa>
				ch=*(fmt++);
    2848:	843a                	mv	s0,a4
    284a:	4681                	li	a3,0
    284c:	4701                	li	a4,0
			while (ch >= '0' && ch <= '9') {
    284e:	45a5                	li	a1,9
    2850:	a819                	j	2866 <mini_vpprintf+0x96>
				pad_to = pad_to * 10 + (ch - '0');
    2852:	00271793          	slli	a5,a4,0x2
    2856:	97ba                	add	a5,a5,a4
    2858:	0786                	slli	a5,a5,0x1
				ch=*(fmt++);
    285a:	0405                	addi	s0,s0,1
				pad_to = pad_to * 10 + (ch - '0');
    285c:	00f60733          	add	a4,a2,a5
				ch=*(fmt++);
    2860:	fff44783          	lbu	a5,-1(s0)
    2864:	4685                	li	a3,1
			while (ch >= '0' && ch <= '9') {
    2866:	fd078613          	addi	a2,a5,-48
    286a:	0ff67513          	zext.b	a0,a2
    286e:	fea5f2e3          	bgeu	a1,a0,2852 <mini_vpprintf+0x82>
    2872:	c299                	beqz	a3,2878 <mini_vpprintf+0xa8>
    2874:	00f10fa3          	sb	a5,31(sp)
			if(pad_to > (signed int) sizeof(bf)) {
    2878:	c83a                	sw	a4,16(sp)
    287a:	46e1                	li	a3,24
    287c:	00e6d363          	bge	a3,a4,2882 <mini_vpprintf+0xb2>
    2880:	c836                	sw	a3,16(sp)
			if (ch == 'l') {
    2882:	06c00613          	li	a2,108
			char l = 0;
    2886:	4681                	li	a3,0
			if (ch == 'l') {
    2888:	00c79863          	bne	a5,a2,2898 <mini_vpprintf+0xc8>
				ch=*(fmt++);
    288c:	00044783          	lbu	a5,0(s0)
				l = 1;
    2890:	4685                	li	a3,1
				ch=*(fmt++);
    2892:	0405                	addi	s0,s0,1
    2894:	00f10fa3          	sb	a5,31(sp)
			switch (ch) {
    2898:	01f14603          	lbu	a2,31(sp)
    289c:	06400793          	li	a5,100
    28a0:	06f60563          	beq	a2,a5,290a <mini_vpprintf+0x13a>
    28a4:	02c7e763          	bltu	a5,a2,28d2 <mini_vpprintf+0x102>
    28a8:	05800793          	li	a5,88
    28ac:	0af60063          	beq	a2,a5,294c <mini_vpprintf+0x17c>
    28b0:	06300793          	li	a5,99
    28b4:	0af60d63          	beq	a2,a5,296e <mini_vpprintf+0x19e>
    28b8:	d239                	beqz	a2,27fe <mini_vpprintf+0x2e>
					len = puts(&ch, len, buf);
    28ba:	4612                	lw	a2,4(sp)
    28bc:	4782                	lw	a5,0(sp)
    28be:	4585                	li	a1,1
    28c0:	01f10513          	addi	a0,sp,31
    28c4:	9782                	jalr	a5
					break;
    28c6:	c426                	sw	s1,8(sp)
    28c8:	b785                	j	2828 <mini_vpprintf+0x58>
			char pad_char = ' ';
    28ca:	02000693          	li	a3,32
    28ce:	c636                	sw	a3,12(sp)
    28d0:	bfa5                	j	2848 <mini_vpprintf+0x78>
			switch (ch) {
    28d2:	07500793          	li	a5,117
    28d6:	02f60a63          	beq	a2,a5,290a <mini_vpprintf+0x13a>
    28da:	07800793          	li	a5,120
    28de:	06f60763          	beq	a2,a5,294c <mini_vpprintf+0x17c>
    28e2:	07300793          	li	a5,115
    28e6:	fcf61ae3          	bne	a2,a5,28ba <mini_vpprintf+0xea>
					ptr = va_arg(va, char*);
    28ea:	00448793          	addi	a5,s1,4
    28ee:	4084                	lw	s1,0(s1)
    28f0:	cc3a                	sw	a4,24(sp)
    28f2:	c43e                	sw	a5,8(sp)
					len = mini_strlen(ptr);
    28f4:	8526                	mv	a0,s1
    28f6:	35e1                	jal	27be <strlen>
					if (pad_to > 0) {
    28f8:	4762                	lw	a4,24(sp)
					len = mini_strlen(ptr);
    28fa:	85aa                	mv	a1,a0
					if (pad_to > 0) {
    28fc:	08e05663          	blez	a4,2988 <mini_vpprintf+0x1b8>
						len = mini_pad(ptr, len, pad_char, pad_to, bf);
    2900:	46c2                	lw	a3,16(sp)
    2902:	4632                	lw	a2,12(sp)
    2904:	1838                	addi	a4,sp,56
    2906:	8526                	mv	a0,s1
    2908:	a01d                	j	292e <mini_vpprintf+0x15e>
						len = mini_itoa(va_arg(va, unsigned long), 10, 0, (ch=='u'), bf2);
    290a:	00448793          	addi	a5,s1,4
    290e:	c43e                	sw	a5,8(sp)
					if(l) {
    2910:	c695                	beqz	a3,293c <mini_vpprintf+0x16c>
						len = mini_itoa(va_arg(va, unsigned long), 10, 0, (ch=='u'), bf2);
    2912:	f8b60613          	addi	a2,a2,-117
    2916:	1018                	addi	a4,sp,32
    2918:	00163693          	seqz	a3,a2
    291c:	4088                	lw	a0,0(s1)
    291e:	4601                	li	a2,0
    2920:	45a9                	li	a1,10
    2922:	31b5                	jal	258e <mini_itoa.part.0>
					len = mini_pad(bf2, len, pad_char, pad_to, bf);
    2924:	46c2                	lw	a3,16(sp)
    2926:	4632                	lw	a2,12(sp)
    2928:	1838                	addi	a4,sp,56
    292a:	85aa                	mv	a1,a0
					len = mini_pad(bf2, len, pad_char, pad_to, bf);
    292c:	1008                	addi	a0,sp,32
    292e:	3e59                	jal	24c4 <mini_pad>
					len = puts(bf, len, buf);
    2930:	4612                	lw	a2,4(sp)
					len = mini_pad(bf2, len, pad_char, pad_to, bf);
    2932:	85aa                	mv	a1,a0
					len = puts(bf, len, buf);
    2934:	1828                	addi	a0,sp,56
    2936:	4782                	lw	a5,0(sp)
    2938:	9782                	jalr	a5
					break;
    293a:	b5fd                	j	2828 <mini_vpprintf+0x58>
						if(ch == 'u') {
    293c:	07500793          	li	a5,117
    2940:	1018                	addi	a4,sp,32
    2942:	4685                	li	a3,1
    2944:	fcf60ce3          	beq	a2,a5,291c <mini_vpprintf+0x14c>
	if (radix > 16)
    2948:	4681                	li	a3,0
    294a:	bfc9                	j	291c <mini_vpprintf+0x14c>
					if(l) {
    294c:	4088                	lw	a0,0(s1)
						len = mini_itoa(va_arg(va, unsigned long), 16, (ch=='X'), 1, bf2);
    294e:	fa860613          	addi	a2,a2,-88
						len = mini_itoa(va_arg(va, unsigned long), 10, 0, (ch=='u'), bf2);
    2952:	00448793          	addi	a5,s1,4
    2956:	1018                	addi	a4,sp,32
    2958:	4685                	li	a3,1
    295a:	00163613          	seqz	a2,a2
    295e:	45c1                	li	a1,16
    2960:	c43e                	sw	a5,8(sp)
	if (radix > 16)
    2962:	3135                	jal	258e <mini_itoa.part.0>
					len = mini_pad(bf2, len, pad_char, pad_to, bf);
    2964:	46c2                	lw	a3,16(sp)
    2966:	4632                	lw	a2,12(sp)
    2968:	85aa                	mv	a1,a0
    296a:	1838                	addi	a4,sp,56
    296c:	b7c1                	j	292c <mini_vpprintf+0x15c>
					ch = (char)(va_arg(va, int));
    296e:	00448793          	addi	a5,s1,4
    2972:	c43e                	sw	a5,8(sp)
    2974:	409c                	lw	a5,0(s1)
					len = mini_pad(&ch, 1, pad_char, pad_to, bf);
    2976:	46c2                	lw	a3,16(sp)
    2978:	4632                	lw	a2,12(sp)
					ch = (char)(va_arg(va, int));
    297a:	00f10fa3          	sb	a5,31(sp)
					len = mini_pad(&ch, 1, pad_char, pad_to, bf);
    297e:	1838                	addi	a4,sp,56
    2980:	4585                	li	a1,1
    2982:	01f10513          	addi	a0,sp,31
    2986:	b765                	j	292e <mini_vpprintf+0x15e>
						len = puts(ptr, len, buf);
    2988:	4612                	lw	a2,4(sp)
    298a:	8526                	mv	a0,s1
    298c:	b76d                	j	2936 <mini_vpprintf+0x166>

0000298e <printf>:
{
    298e:	1111                	addi	sp,sp,-28
    2990:	c632                	sw	a2,12(sp)
	int ret_status = mini_vpprintf(__puts_uart, 0, format, args);
    2992:	862a                	mv	a2,a0
    2994:	6509                	lui	a0,0x2
{
    2996:	c42e                	sw	a1,8(sp)
    2998:	c836                	sw	a3,16(sp)
	int ret_status = mini_vpprintf(__puts_uart, 0, format, args);
    299a:	4581                	li	a1,0
	va_start( args, format );
    299c:	0034                	addi	a3,sp,8
	int ret_status = mini_vpprintf(__puts_uart, 0, format, args);
    299e:	72650513          	addi	a0,a0,1830 # 2726 <__puts_uart>
{
    29a2:	c206                	sw	ra,4(sp)
    29a4:	ca3a                	sw	a4,20(sp)
    29a6:	cc3e                	sw	a5,24(sp)
	va_start( args, format );
    29a8:	c036                	sw	a3,0(sp)
	int ret_status = mini_vpprintf(__puts_uart, 0, format, args);
    29aa:	351d                	jal	27d0 <mini_vpprintf>
}
    29ac:	4092                	lw	ra,4(sp)
    29ae:	0171                	addi	sp,sp,28
    29b0:	8082                	ret

000029b2 <move_mouse_by_vector.constprop.0>:


void move_mouse_by_vector(const euclid_vector *vect)
{
	// Convert the vector angle to radians
	float angle_rad = vect->angle * (M_PI / 180.0);
    29b2:	00051503          	lh	a0,0(a0)
void move_mouse_by_vector(const euclid_vector *vect)
    29b6:	fb810113          	addi	sp,sp,-72
    29ba:	c286                	sw	ra,68(sp)
    29bc:	c0a2                	sw	s0,64(sp)
    29be:	de26                	sw	s1,60(sp)
	float angle_rad = vect->angle * (M_PI / 180.0);
    29c0:	a35fe0ef          	jal	13f4 <__floatsidf>
    29c4:	200007b7          	lui	a5,0x20000
    29c8:	0007a603          	lw	a2,0(a5) # 20000000 <_data_vma>
    29cc:	0047a683          	lw	a3,4(a5)
    29d0:	ea5fd0ef          	jal	874 <__muldf3>
    29d4:	8f5ff0ef          	jal	22c8 <__truncdfsf2>

// Function to calculate cosine using an improved Taylor series with 5 terms
float mini_cos(float x)
{
	// Normalize the input to the range -PI to PI for better accuracy
	while (x > M_PI)    x -= 2 * M_PI;
    29d8:	8081a703          	lw	a4,-2040(gp) # 20000008 <_data_vma+0x8>
    29dc:	80c1a783          	lw	a5,-2036(gp) # 2000000c <_data_vma+0xc>
    29e0:	c02a                	sw	a0,0(sp)
    29e2:	842a                	mv	s0,a0
    29e4:	ca3a                	sw	a4,20(sp)
    29e6:	cc3e                	sw	a5,24(sp)
    29e8:	8522                	mv	a0,s0
    29ea:	84bff0ef          	jal	2234 <__extendsfdf2>
    29ee:	8101a603          	lw	a2,-2032(gp) # 20000010 <_data_vma+0x10>
    29f2:	8141a683          	lw	a3,-2028(gp) # 20000014 <_data_vma+0x14>
    29f6:	d62a                	sw	a0,44(sp)
    29f8:	84ae                	mv	s1,a1
    29fa:	ce7fd0ef          	jal	6e0 <__gedf2>
    29fe:	57b2                	lw	a5,44(sp)
    2a00:	2aa04763          	bgtz	a0,2cae <move_mouse_by_vector.constprop.0+0x2fc>
	while (x < -M_PI)   x += 2 * M_PI;
    2a04:	8081a703          	lw	a4,-2040(gp) # 20000008 <_data_vma+0x8>
    2a08:	80c1a783          	lw	a5,-2036(gp) # 2000000c <_data_vma+0xc>
    2a0c:	c23a                	sw	a4,4(sp)
    2a0e:	c43e                	sw	a5,8(sp)
    2a10:	8522                	mv	a0,s0
    2a12:	823ff0ef          	jal	2234 <__extendsfdf2>
    2a16:	8181a603          	lw	a2,-2024(gp) # 20000018 <_data_vma+0x18>
    2a1a:	81c1a683          	lw	a3,-2020(gp) # 2000001c <_data_vma+0x1c>
    2a1e:	ca2a                	sw	a0,20(sp)
    2a20:	84ae                	mv	s1,a1
    2a22:	d89fd0ef          	jal	7aa <__ledf2>
    2a26:	47d2                	lw	a5,20(sp)
    2a28:	28054f63          	bltz	a0,2cc6 <move_mouse_by_vector.constprop.0+0x314>

	// Compute powers of x (x^2, x^4, x^6, x^8, x^10)
	float x2 =    x  *   x;
    2a2c:	85a2                	mv	a1,s0
    2a2e:	8522                	mv	a0,s0
    2a30:	922ff0ef          	jal	1b52 <__mulsf3>
	float x4 =   x2  *  x2;
    2a34:	85aa                	mv	a1,a0
	float x2 =    x  *   x;
    2a36:	c22a                	sw	a0,4(sp)
	float x4 =   x2  *  x2;
    2a38:	91aff0ef          	jal	1b52 <__mulsf3>
    2a3c:	842a                	mv	s0,a0
	float x6 =   x4  *  x2;
    2a3e:	85aa                	mv	a1,a0
    2a40:	4512                	lw	a0,4(sp)
    2a42:	910ff0ef          	jal	1b52 <__mulsf3>
	float x8 =   x6  *  x2;
    2a46:	85aa                	mv	a1,a0
	float x6 =   x4  *  x2;
    2a48:	c62a                	sw	a0,12(sp)
	float x8 =   x6  *  x2;
    2a4a:	4512                	lw	a0,4(sp)
    2a4c:	906ff0ef          	jal	1b52 <__mulsf3>
	float x10 =   x8 *  x2;

	// Compute the cosine using the first five terms of the Taylor series
	float result = 1.0f - (x2 / 2.0f) + (x4 / 24.0f) - (x6 / 720.0f) + (x8 / 40320.0f) - (x10 / 3628800.0f);
    2a50:	8201a583          	lw	a1,-2016(gp) # 20000020 <_data_vma+0x20>
	float x8 =   x6  *  x2;
    2a54:	ca2a                	sw	a0,20(sp)
	float result = 1.0f - (x2 / 2.0f) + (x4 / 24.0f) - (x6 / 720.0f) + (x8 / 40320.0f) - (x10 / 3628800.0f);
    2a56:	4512                	lw	a0,4(sp)
    2a58:	8faff0ef          	jal	1b52 <__mulsf3>
    2a5c:	85aa                	mv	a1,a0
    2a5e:	8241a503          	lw	a0,-2012(gp) # 20000024 <_data_vma+0x24>
    2a62:	b5cff0ef          	jal	1dbe <__subsf3>
    2a66:	8281a583          	lw	a1,-2008(gp) # 20000028 <_data_vma+0x28>
    2a6a:	84aa                	mv	s1,a0
    2a6c:	8522                	mv	a0,s0
    2a6e:	d1dfe0ef          	jal	178a <__divsf3>
    2a72:	85aa                	mv	a1,a0
    2a74:	8526                	mv	a0,s1
    2a76:	9e7fe0ef          	jal	145c <__addsf3>
    2a7a:	82c1a583          	lw	a1,-2004(gp) # 2000002c <_data_vma+0x2c>
    2a7e:	842a                	mv	s0,a0
    2a80:	4532                	lw	a0,12(sp)
    2a82:	d09fe0ef          	jal	178a <__divsf3>
    2a86:	85aa                	mv	a1,a0
    2a88:	8522                	mv	a0,s0
    2a8a:	b34ff0ef          	jal	1dbe <__subsf3>
    2a8e:	8301a583          	lw	a1,-2000(gp) # 20000030 <_data_vma+0x30>
    2a92:	842a                	mv	s0,a0
    2a94:	4552                	lw	a0,20(sp)
    2a96:	cf5fe0ef          	jal	178a <__divsf3>
    2a9a:	85aa                	mv	a1,a0
    2a9c:	8522                	mv	a0,s0
    2a9e:	9bffe0ef          	jal	145c <__addsf3>
    2aa2:	842a                	mv	s0,a0
	float x10 =   x8 *  x2;
    2aa4:	45d2                	lw	a1,20(sp)
    2aa6:	4512                	lw	a0,4(sp)
    2aa8:	8aaff0ef          	jal	1b52 <__mulsf3>
	float result = 1.0f - (x2 / 2.0f) + (x4 / 24.0f) - (x6 / 720.0f) + (x8 / 40320.0f) - (x10 / 3628800.0f);
    2aac:	8341a583          	lw	a1,-1996(gp) # 20000034 <_data_vma+0x34>
    2ab0:	cdbfe0ef          	jal	178a <__divsf3>
    2ab4:	85aa                	mv	a1,a0
    2ab6:	8522                	mv	a0,s0
    2ab8:	b06ff0ef          	jal	1dbe <__subsf3>
	// X and Y starting point
	int32_t x_start = 0;
	int32_t y_start = 0;

	// Calculate X and Y end point from distance and angle
	int32_t x_end = mini_round(vect->distance * mini_cos(angle_rad));
    2abc:	8381a583          	lw	a1,-1992(gp) # 20000038 <_data_vma+0x38>
    2ac0:	892ff0ef          	jal	1b52 <__mulsf3>


float mini_round(const float x) 
{
	// Add 0.5 if x is positive, subtract 0.5 if x is negative, then truncate
	return (x > 0.0f) ? (int)(x + 0.5f) : (int)(x - 0.5f);
    2ac4:	00000593          	li	a1,0
    2ac8:	842a                	mv	s0,a0
    2aca:	f61fe0ef          	jal	1a2a <__gesf2>
    2ace:	8201a583          	lw	a1,-2016(gp) # 20000020 <_data_vma+0x20>
    2ad2:	20a05663          	blez	a0,2cde <move_mouse_by_vector.constprop.0+0x32c>
    2ad6:	8522                	mv	a0,s0
    2ad8:	985fe0ef          	jal	145c <__addsf3>
    2adc:	e3cff0ef          	jal	2118 <__fixsfsi>
    2ae0:	e96ff0ef          	jal	2176 <__floatsisf>
    2ae4:	e34ff0ef          	jal	2118 <__fixsfsi>
	while (x > M_PI)    x -= 2 * M_PI;
    2ae8:	8101a703          	lw	a4,-2032(gp) # 20000010 <_data_vma+0x10>
    2aec:	8141a783          	lw	a5,-2028(gp) # 20000014 <_data_vma+0x14>
    2af0:	c22a                	sw	a0,4(sp)
    2af2:	c63a                	sw	a4,12(sp)
    2af4:	c83e                	sw	a5,16(sp)
    2af6:	8081a703          	lw	a4,-2040(gp) # 20000008 <_data_vma+0x8>
    2afa:	80c1a783          	lw	a5,-2036(gp) # 2000000c <_data_vma+0xc>
    2afe:	ca3a                	sw	a4,20(sp)
    2b00:	cc3e                	sw	a5,24(sp)
    2b02:	4502                	lw	a0,0(sp)
    2b04:	f30ff0ef          	jal	2234 <__extendsfdf2>
    2b08:	4632                	lw	a2,12(sp)
    2b0a:	46c2                	lw	a3,16(sp)
    2b0c:	84aa                	mv	s1,a0
    2b0e:	842e                	mv	s0,a1
    2b10:	bd1fd0ef          	jal	6e0 <__gedf2>
    2b14:	1ca04963          	bgtz	a0,2ce6 <move_mouse_by_vector.constprop.0+0x334>
	while (x < -M_PI)   x += 2 * M_PI;
    2b18:	8181a703          	lw	a4,-2024(gp) # 20000018 <_data_vma+0x18>
    2b1c:	81c1a783          	lw	a5,-2020(gp) # 2000001c <_data_vma+0x1c>
    2b20:	c63a                	sw	a4,12(sp)
    2b22:	c83e                	sw	a5,16(sp)
    2b24:	8081a703          	lw	a4,-2040(gp) # 20000008 <_data_vma+0x8>
    2b28:	80c1a783          	lw	a5,-2036(gp) # 2000000c <_data_vma+0xc>
    2b2c:	ca3a                	sw	a4,20(sp)
    2b2e:	cc3e                	sw	a5,24(sp)
    2b30:	4502                	lw	a0,0(sp)
    2b32:	f02ff0ef          	jal	2234 <__extendsfdf2>
    2b36:	4632                	lw	a2,12(sp)
    2b38:	46c2                	lw	a3,16(sp)
    2b3a:	84aa                	mv	s1,a0
    2b3c:	842e                	mv	s0,a1
    2b3e:	c6dfd0ef          	jal	7aa <__ledf2>
    2b42:	1a054e63          	bltz	a0,2cfe <move_mouse_by_vector.constprop.0+0x34c>
	float x2 =    x  *   x;
    2b46:	4582                	lw	a1,0(sp)
    2b48:	852e                	mv	a0,a1
    2b4a:	808ff0ef          	jal	1b52 <__mulsf3>
    2b4e:	842a                	mv	s0,a0
	float x3 =   x2  *   x;
    2b50:	85aa                	mv	a1,a0
    2b52:	4502                	lw	a0,0(sp)
    2b54:	ffffe0ef          	jal	1b52 <__mulsf3>
    2b58:	84aa                	mv	s1,a0
	float x5 =   x3  *  x2;
    2b5a:	85aa                	mv	a1,a0
    2b5c:	8522                	mv	a0,s0
    2b5e:	ff5fe0ef          	jal	1b52 <__mulsf3>
	float x7 =   x5  *  x2;
    2b62:	85aa                	mv	a1,a0
	float x5 =   x3  *  x2;
    2b64:	c62a                	sw	a0,12(sp)
	float x7 =   x5  *  x2;
    2b66:	8522                	mv	a0,s0
    2b68:	febfe0ef          	jal	1b52 <__mulsf3>
	float x9 =   x7  *  x2;
    2b6c:	85aa                	mv	a1,a0
	float x7 =   x5  *  x2;
    2b6e:	ca2a                	sw	a0,20(sp)
	float x9 =   x7  *  x2;
    2b70:	8522                	mv	a0,s0
    2b72:	fe1fe0ef          	jal	1b52 <__mulsf3>
	float result = x - (x3 / 6.0f) + (x5 / 120.0f) - (x7 / 5040.0f) + (x9 / 362880.0f) - (x11 / 39916800.0f);
    2b76:	83c1a583          	lw	a1,-1988(gp) # 2000003c <_data_vma+0x3c>
	float x9 =   x7  *  x2;
    2b7a:	ce2a                	sw	a0,28(sp)
	float result = x - (x3 / 6.0f) + (x5 / 120.0f) - (x7 / 5040.0f) + (x9 / 362880.0f) - (x11 / 39916800.0f);
    2b7c:	8526                	mv	a0,s1
    2b7e:	c0dfe0ef          	jal	178a <__divsf3>
    2b82:	85aa                	mv	a1,a0
    2b84:	4502                	lw	a0,0(sp)
    2b86:	a38ff0ef          	jal	1dbe <__subsf3>
    2b8a:	8401a583          	lw	a1,-1984(gp) # 20000040 <_data_vma+0x40>
    2b8e:	84aa                	mv	s1,a0
    2b90:	4532                	lw	a0,12(sp)
    2b92:	bf9fe0ef          	jal	178a <__divsf3>
    2b96:	85aa                	mv	a1,a0
    2b98:	8526                	mv	a0,s1
    2b9a:	8c3fe0ef          	jal	145c <__addsf3>
    2b9e:	8441a583          	lw	a1,-1980(gp) # 20000044 <_data_vma+0x44>
    2ba2:	84aa                	mv	s1,a0
    2ba4:	4552                	lw	a0,20(sp)
    2ba6:	be5fe0ef          	jal	178a <__divsf3>
    2baa:	85aa                	mv	a1,a0
    2bac:	8526                	mv	a0,s1
    2bae:	a10ff0ef          	jal	1dbe <__subsf3>
    2bb2:	8481a583          	lw	a1,-1976(gp) # 20000048 <_data_vma+0x48>
    2bb6:	84aa                	mv	s1,a0
    2bb8:	4572                	lw	a0,28(sp)
    2bba:	bd1fe0ef          	jal	178a <__divsf3>
    2bbe:	85aa                	mv	a1,a0
    2bc0:	8526                	mv	a0,s1
    2bc2:	89bfe0ef          	jal	145c <__addsf3>
	float x11 =  x9  *  x2;
    2bc6:	45f2                	lw	a1,28(sp)
	float result = x - (x3 / 6.0f) + (x5 / 120.0f) - (x7 / 5040.0f) + (x9 / 362880.0f) - (x11 / 39916800.0f);
    2bc8:	84aa                	mv	s1,a0
	float x11 =  x9  *  x2;
    2bca:	8522                	mv	a0,s0
    2bcc:	f87fe0ef          	jal	1b52 <__mulsf3>
	float result = x - (x3 / 6.0f) + (x5 / 120.0f) - (x7 / 5040.0f) + (x9 / 362880.0f) - (x11 / 39916800.0f);
    2bd0:	84c1a583          	lw	a1,-1972(gp) # 2000004c <_data_vma+0x4c>
    2bd4:	bb7fe0ef          	jal	178a <__divsf3>
    2bd8:	85aa                	mv	a1,a0
    2bda:	8526                	mv	a0,s1
    2bdc:	9e2ff0ef          	jal	1dbe <__subsf3>
	int32_t y_end = mini_round(vect->distance * mini_sin(angle_rad));
    2be0:	8381a583          	lw	a1,-1992(gp) # 20000038 <_data_vma+0x38>
    2be4:	f6ffe0ef          	jal	1b52 <__mulsf3>
	return (x > 0.0f) ? (int)(x + 0.5f) : (int)(x - 0.5f);
    2be8:	00000593          	li	a1,0
    2bec:	842a                	mv	s0,a0
    2bee:	e3dfe0ef          	jal	1a2a <__gesf2>
    2bf2:	8201a583          	lw	a1,-2016(gp) # 20000020 <_data_vma+0x20>
    2bf6:	12a05063          	blez	a0,2d16 <move_mouse_by_vector.constprop.0+0x364>
    2bfa:	8522                	mv	a0,s0
    2bfc:	861fe0ef          	jal	145c <__addsf3>
    2c00:	d18ff0ef          	jal	2118 <__fixsfsi>
    2c04:	d72ff0ef          	jal	2176 <__floatsisf>
    2c08:	d10ff0ef          	jal	2118 <__fixsfsi>
    2c0c:	c02a                	sw	a0,0(sp)

	//// Bresenham variables
	// Delta x and y - total distances to cover in x and y direction
	int32_t x_delta = mini_abs(x_end - x_start);
    2c0e:	4512                	lw	a0,4(sp)
    2c10:	d66ff0ef          	jal	2176 <__floatsisf>
	return (x < 0.0f) ? -x : x;
    2c14:	00000593          	li	a1,0
    2c18:	842a                	mv	s0,a0
    2c1a:	ea5fe0ef          	jal	1abe <__lesf2>
    2c1e:	00055563          	bgez	a0,2c28 <move_mouse_by_vector.constprop.0+0x276>
    2c22:	800007b7          	lui	a5,0x80000
    2c26:	8c3d                	xor	s0,s0,a5
    2c28:	8522                	mv	a0,s0
    2c2a:	ceeff0ef          	jal	2118 <__fixsfsi>
    2c2e:	84aa                	mv	s1,a0
	int32_t y_delta = mini_abs(y_end - y_start);
    2c30:	4502                	lw	a0,0(sp)
    2c32:	d44ff0ef          	jal	2176 <__floatsisf>
    2c36:	00000593          	li	a1,0
    2c3a:	842a                	mv	s0,a0
    2c3c:	e83fe0ef          	jal	1abe <__lesf2>
    2c40:	00055563          	bgez	a0,2c4a <move_mouse_by_vector.constprop.0+0x298>
    2c44:	800007b7          	lui	a5,0x80000
    2c48:	8c3d                	xor	s0,s0,a5
    2c4a:	8522                	mv	a0,s0
    2c4c:	cccff0ef          	jal	2118 <__fixsfsi>
	// Which direction to step in
	int32_t x_step = (x_start < x_end)   ?   1 : -1;
    2c50:	4712                	lw	a4,4(sp)
	int32_t y_delta = mini_abs(y_end - y_start);
    2c52:	87aa                	mv	a5,a0
	int32_t x_step = (x_start < x_end)   ?   1 : -1;
    2c54:	00172713          	slti	a4,a4,1
    2c58:	40e00733          	neg	a4,a4
    2c5c:	00176713          	ori	a4,a4,1
    2c60:	c63a                	sw	a4,12(sp)
	int32_t y_step = (y_start < y_end)   ?   1 : -1;
    2c62:	4702                	lw	a4,0(sp)
    2c64:	46b2                	lw	a3,12(sp)
    2c66:	00172413          	slti	s0,a4,1
    2c6a:	40800433          	neg	s0,s0
    2c6e:	00146713          	ori	a4,s0,1
    2c72:	ca3a                	sw	a4,20(sp)
    2c74:	16fd                	addi	a3,a3,-1 # 7fffff <_data_lma+0x7fd03b>
	// Accumulated Error - how far from the ideal line we are
	int32_t err = x_delta - y_delta;
    2c76:	40a48733          	sub	a4,s1,a0
    2c7a:	e2d5                	bnez	a3,2d1e <move_mouse_by_vector.constprop.0+0x36c>
    2c7c:	668d                	lui	a3,0x3
    2c7e:	f8c68693          	addi	a3,a3,-116 # 2f8c <__clz_tab+0x100>
    2c82:	ce36                	sw	a3,28(sp)
    2c84:	46d2                	lw	a3,20(sp)
    2c86:	16fd                	addi	a3,a3,-1
    2c88:	eed9                	bnez	a3,2d26 <move_mouse_by_vector.constprop.0+0x374>
    2c8a:	668d                	lui	a3,0x3
    2c8c:	f9c68693          	addi	a3,a3,-100 # 2f9c <__clz_tab+0x110>
    2c90:	d236                	sw	a3,36(sp)
	int32_t y_start = 0;
    2c92:	4401                	li	s0,0
	int32_t x_start = 0;
    2c94:	4601                	li	a2,0


	// Step through the line until the destination is reached
	while(x_start != x_end || y_start != y_end) 
    2c96:	4692                	lw	a3,4(sp)
    2c98:	08c69b63          	bne	a3,a2,2d2e <move_mouse_by_vector.constprop.0+0x37c>
    2c9c:	4682                	lw	a3,0(sp)
    2c9e:	08869863          	bne	a3,s0,2d2e <move_mouse_by_vector.constprop.0+0x37c>

			// TODO:
			printf("Step: %s\n", (y_step > 0) ? "up" : "down");
		}
	}
}
    2ca2:	4096                	lw	ra,68(sp)
    2ca4:	4406                	lw	s0,64(sp)
    2ca6:	54f2                	lw	s1,60(sp)
    2ca8:	04810113          	addi	sp,sp,72
    2cac:	8082                	ret
	while (x > M_PI)    x -= 2 * M_PI;
    2cae:	c23e                	sw	a5,4(sp)
    2cb0:	c426                	sw	s1,8(sp)
    2cb2:	4652                	lw	a2,20(sp)
    2cb4:	46e2                	lw	a3,24(sp)
    2cb6:	4512                	lw	a0,4(sp)
    2cb8:	45a2                	lw	a1,8(sp)
    2cba:	8c8fe0ef          	jal	d82 <__subdf3>
    2cbe:	e0aff0ef          	jal	22c8 <__truncdfsf2>
    2cc2:	842a                	mv	s0,a0
    2cc4:	b315                	j	29e8 <move_mouse_by_vector.constprop.0+0x36>
	while (x < -M_PI)   x += 2 * M_PI;
    2cc6:	c63e                	sw	a5,12(sp)
    2cc8:	c826                	sw	s1,16(sp)
    2cca:	4612                	lw	a2,4(sp)
    2ccc:	46a2                	lw	a3,8(sp)
    2cce:	4532                	lw	a0,12(sp)
    2cd0:	45c2                	lw	a1,16(sp)
    2cd2:	bcefd0ef          	jal	a0 <__adddf3>
    2cd6:	df2ff0ef          	jal	22c8 <__truncdfsf2>
    2cda:	842a                	mv	s0,a0
    2cdc:	bb15                	j	2a10 <move_mouse_by_vector.constprop.0+0x5e>
	return (x > 0.0f) ? (int)(x + 0.5f) : (int)(x - 0.5f);
    2cde:	8522                	mv	a0,s0
    2ce0:	8deff0ef          	jal	1dbe <__subsf3>
    2ce4:	bbe5                	j	2adc <move_mouse_by_vector.constprop.0+0x12a>
	while (x > M_PI)    x -= 2 * M_PI;
    2ce6:	ce26                	sw	s1,28(sp)
    2ce8:	d022                	sw	s0,32(sp)
    2cea:	4652                	lw	a2,20(sp)
    2cec:	46e2                	lw	a3,24(sp)
    2cee:	4572                	lw	a0,28(sp)
    2cf0:	5582                	lw	a1,32(sp)
    2cf2:	890fe0ef          	jal	d82 <__subdf3>
    2cf6:	dd2ff0ef          	jal	22c8 <__truncdfsf2>
    2cfa:	c02a                	sw	a0,0(sp)
    2cfc:	b519                	j	2b02 <move_mouse_by_vector.constprop.0+0x150>
	while (x < -M_PI)   x += 2 * M_PI;
    2cfe:	d226                	sw	s1,36(sp)
    2d00:	d422                	sw	s0,40(sp)
    2d02:	4652                	lw	a2,20(sp)
    2d04:	46e2                	lw	a3,24(sp)
    2d06:	5512                	lw	a0,36(sp)
    2d08:	55a2                	lw	a1,40(sp)
    2d0a:	b96fd0ef          	jal	a0 <__adddf3>
    2d0e:	dbaff0ef          	jal	22c8 <__truncdfsf2>
    2d12:	c02a                	sw	a0,0(sp)
    2d14:	bd31                	j	2b30 <move_mouse_by_vector.constprop.0+0x17e>
	return (x > 0.0f) ? (int)(x + 0.5f) : (int)(x - 0.5f);
    2d16:	8522                	mv	a0,s0
    2d18:	8a6ff0ef          	jal	1dbe <__subsf3>
    2d1c:	b5d5                	j	2c00 <move_mouse_by_vector.constprop.0+0x24e>
    2d1e:	668d                	lui	a3,0x3
    2d20:	f9468693          	addi	a3,a3,-108 # 2f94 <__clz_tab+0x108>
    2d24:	bfb9                	j	2c82 <move_mouse_by_vector.constprop.0+0x2d0>
    2d26:	668d                	lui	a3,0x3
    2d28:	fa068693          	addi	a3,a3,-96 # 2fa0 <__clz_tab+0x114>
    2d2c:	b795                	j	2c90 <move_mouse_by_vector.constprop.0+0x2de>
		int32_t err2 = err * 2;
    2d2e:	00171313          	slli	t1,a4,0x1
		if(err2 > -y_delta)
    2d32:	40f005b3          	neg	a1,a5
    2d36:	0265d263          	bge	a1,t1,2d5a <move_mouse_by_vector.constprop.0+0x3a8>
			err -= y_delta;
    2d3a:	8f1d                	sub	a4,a4,a5
    2d3c:	da3e                	sw	a5,52(sp)
			x_start += x_step;
    2d3e:	47b2                	lw	a5,12(sp)
			printf("Step: %s\n", (x_step > 0) ? "right" : "left");
    2d40:	45f2                	lw	a1,28(sp)
    2d42:	650d                	lui	a0,0x3
			x_start += x_step;
    2d44:	963e                	add	a2,a2,a5
			printf("Step: %s\n", (x_step > 0) ? "right" : "left");
    2d46:	fa850513          	addi	a0,a0,-88 # 2fa8 <__clz_tab+0x11c>
    2d4a:	dc1a                	sw	t1,56(sp)
			err -= y_delta;
    2d4c:	d83a                	sw	a4,48(sp)
			x_start += x_step;
    2d4e:	d632                	sw	a2,44(sp)
			printf("Step: %s\n", (x_step > 0) ? "right" : "left");
    2d50:	393d                	jal	298e <printf>
    2d52:	5362                	lw	t1,56(sp)
    2d54:	57d2                	lw	a5,52(sp)
    2d56:	5742                	lw	a4,48(sp)
    2d58:	5632                	lw	a2,44(sp)
		if(err2 < x_delta) 
    2d5a:	f2935ee3          	bge	t1,s1,2c96 <move_mouse_by_vector.constprop.0+0x2e4>
    2d5e:	d83e                	sw	a5,48(sp)
			printf("Step: %s\n", (y_step > 0) ? "up" : "down");
    2d60:	5592                	lw	a1,36(sp)
			y_start += y_step;
    2d62:	47d2                	lw	a5,20(sp)
			printf("Step: %s\n", (y_step > 0) ? "up" : "down");
    2d64:	650d                	lui	a0,0x3
			err += x_delta;
    2d66:	9726                	add	a4,a4,s1
			printf("Step: %s\n", (y_step > 0) ? "up" : "down");
    2d68:	fa850513          	addi	a0,a0,-88 # 2fa8 <__clz_tab+0x11c>
    2d6c:	da32                	sw	a2,52(sp)
			err += x_delta;
    2d6e:	d63a                	sw	a4,44(sp)
			y_start += y_step;
    2d70:	943e                	add	s0,s0,a5
			printf("Step: %s\n", (y_step > 0) ? "up" : "down");
    2d72:	3931                	jal	298e <printf>
    2d74:	5652                	lw	a2,52(sp)
    2d76:	57c2                	lw	a5,48(sp)
    2d78:	5732                	lw	a4,44(sp)
    2d7a:	bf31                	j	2c96 <move_mouse_by_vector.constprop.0+0x2e4>

00002d7c <puts>:
{
    2d7c:	1151                	addi	sp,sp,-12
    2d7e:	c406                	sw	ra,8(sp)
    2d80:	c222                	sw	s0,4(sp)
    2d82:	c026                	sw	s1,0(sp)
    2d84:	84aa                	mv	s1,a0
	int sl = strlen( s );
    2d86:	a39ff0ef          	jal	27be <strlen>
    2d8a:	842a                	mv	s0,a0
	_write(0, s, sl );
    2d8c:	85aa                	mv	a1,a0
    2d8e:	8526                	mv	a0,s1
    2d90:	8c9ff0ef          	jal	2658 <_write.constprop.0>
	_write(0, "\n", 1 );
    2d94:	650d                	lui	a0,0x3
    2d96:	4585                	li	a1,1
    2d98:	fb050513          	addi	a0,a0,-80 # 2fb0 <__clz_tab+0x124>
    2d9c:	8bdff0ef          	jal	2658 <_write.constprop.0>
}
    2da0:	40a2                	lw	ra,8(sp)
    2da2:	00140513          	addi	a0,s0,1
    2da6:	4412                	lw	s0,4(sp)
    2da8:	4482                	lw	s1,0(sp)
    2daa:	0131                	addi	sp,sp,12
    2dac:	8082                	ret

00002dae <SystemInit>:
	// CH32V003 flash latency
#if defined(CH32X03x)
	FLASH->ACTLR = FLASH_ACTLR_LATENCY_2;                   // +2 Cycle Latency (Recommended per TRM)
#elif defined(CH32V003)
	#if FUNCONF_SYSTEM_CORE_CLOCK > 25000000
		FLASH->ACTLR = FLASH_ACTLR_LATENCY_1;               // +1 Cycle Latency
    2dae:	400227b7          	lui	a5,0x40022
    2db2:	4705                	li	a4,1
    2db4:	c398                	sw	a4,0(a5)
#if defined(FUNCONF_USE_HSI) && FUNCONF_USE_HSI
	#if defined(CH32V30x) || defined(CH32V20x) || defined(CH32V10x)
		EXTEN->EXTEN_CTR |= EXTEN_PLL_HSI_PRE;
	#endif
	#if defined(FUNCONF_USE_PLL) && FUNCONF_USE_PLL
		RCC->CFGR0 = BASE_CFGR0;
    2db6:	400217b7          	lui	a5,0x40021
		RCC->CTLR  = BASE_CTLR | RCC_HSION | RCC_PLLON; 			// Use HSI, enable PLL.
    2dba:	01080737          	lui	a4,0x1080
		RCC->CFGR0 = BASE_CFGR0;
    2dbe:	0007a223          	sw	zero,4(a5) # 40021004 <__global_pointer$+0x20020804>
		RCC->CTLR  = BASE_CTLR | RCC_HSION | RCC_PLLON; 			// Use HSI, enable PLL.
    2dc2:	08170713          	addi	a4,a4,129 # 1080081 <_data_lma+0x107d0bd>
    2dc6:	c398                	sw	a4,0(a5)
	#else
		FLASH->ACTLR = FLASH_ACTLR_LATENCY_1;       		// +1 Cycle Latency
	#endif
#endif

	RCC->INTR  = 0x009F0000;                               // Clear PLL, CSSC, HSE, HSI and LSI ready flags.
    2dc8:	009f0737          	lui	a4,0x9f0
    2dcc:	c798                	sw	a4,8(a5)

#if defined(FUNCONF_USE_PLL) && FUNCONF_USE_PLL
	while((RCC->CTLR & RCC_PLLRDY) == 0);                       	// Wait till PLL is ready
    2dce:	4398                	lw	a4,0(a5)
    2dd0:	00671693          	slli	a3,a4,0x6
    2dd4:	fe06dde3          	bgez	a3,2dce <SystemInit+0x20>
	uint32_t tmp32 = RCC->CFGR0 & ~(0x03);							// clr the SW
    2dd8:	43d8                	lw	a4,4(a5)
	RCC->CFGR0 = tmp32 | RCC_SW_PLL;                       			// Select PLL as system clock source
	while ((RCC->CFGR0 & (uint32_t)RCC_SWS) != (uint32_t)0x08); 	// Wait till PLL is used as system clock source
    2dda:	400216b7          	lui	a3,0x40021
	uint32_t tmp32 = RCC->CFGR0 & ~(0x03);							// clr the SW
    2dde:	9b71                	andi	a4,a4,-4
	RCC->CFGR0 = tmp32 | RCC_SW_PLL;                       			// Select PLL as system clock source
    2de0:	00276713          	ori	a4,a4,2
    2de4:	c3d8                	sw	a4,4(a5)
	while ((RCC->CFGR0 & (uint32_t)RCC_SWS) != (uint32_t)0x08); 	// Wait till PLL is used as system clock source
    2de6:	4721                	li	a4,8
    2de8:	42dc                	lw	a5,4(a3)
    2dea:	8bb1                	andi	a5,a5,12
    2dec:	fee79ee3          	bne	a5,a4,2de8 <SystemInit+0x3a>
	*DMDATA1 = 0x0;
    2df0:	e00007b7          	lui	a5,0xe0000
    2df4:	0e07ac23          	sw	zero,248(a5) # e00000f8 <__global_pointer$+0xbffff8f8>
	*DMDATA0 = 0x80;
    2df8:	08000713          	li	a4,128
    2dfc:	0ee7aa23          	sw	a4,244(a5)
	SetupUART( UART_BRR );
#endif
#if defined( FUNCONF_USE_DEBUGPRINTF ) && FUNCONF_USE_DEBUGPRINTF
	SetupDebugPrintf();
#endif
}
    2e00:	8082                	ret

00002e02 <main>:
{
    2e02:	1141                	addi	sp,sp,-16
    2e04:	c606                	sw	ra,12(sp)
	SystemInit();
    2e06:	3765                	jal	2dae <SystemInit>
	printf("90d\n");
    2e08:	650d                	lui	a0,0x3
    2e0a:	fb450513          	addi	a0,a0,-76 # 2fb4 <__clz_tab+0x128>
    2e0e:	37bd                	jal	2d7c <puts>
	move_mouse_by_vector( &(const euclid_vector){90, 10});
    2e10:	000a07b7          	lui	a5,0xa0
    2e14:	05a78793          	addi	a5,a5,90 # a005a <_data_lma+0x9d096>
    2e18:	850a                	mv	a0,sp
    2e1a:	c03e                	sw	a5,0(sp)
    2e1c:	3e59                	jal	29b2 <move_mouse_by_vector.constprop.0>
	printf("\n\n65\n");
    2e1e:	650d                	lui	a0,0x3
    2e20:	fb850513          	addi	a0,a0,-72 # 2fb8 <__clz_tab+0x12c>
    2e24:	3fa1                	jal	2d7c <puts>
	move_mouse_by_vector( &(const euclid_vector){65, 10});
    2e26:	000a07b7          	lui	a5,0xa0
    2e2a:	04178793          	addi	a5,a5,65 # a0041 <_data_lma+0x9d07d>
    2e2e:	0048                	addi	a0,sp,4
    2e30:	c23e                	sw	a5,4(sp)
    2e32:	3641                	jal	29b2 <move_mouse_by_vector.constprop.0>
	printf("\n\n0\n");
    2e34:	650d                	lui	a0,0x3
    2e36:	fc050513          	addi	a0,a0,-64 # 2fc0 <__clz_tab+0x134>
    2e3a:	3789                	jal	2d7c <puts>
	move_mouse_by_vector( &(const euclid_vector){0, 10});
    2e3c:	0028                	addi	a0,sp,8
    2e3e:	000a07b7          	lui	a5,0xa0
    2e42:	c43e                	sw	a5,8(sp)
    2e44:	36bd                	jal	29b2 <move_mouse_by_vector.constprop.0>
}
    2e46:	40b2                	lw	ra,12(sp)
    2e48:	4501                	li	a0,0
    2e4a:	0141                	addi	sp,sp,16
    2e4c:	8082                	ret
    2e4e:	0000                	unimp
    2e50:	1a22                	slli	s4,s4,0x28
    2e52:	0000                	unimp
    2e54:	1890                	addi	a2,sp,112
    2e56:	0000                	unimp
    2e58:	19ca                	slli	s3,s3,0x32
    2e5a:	0000                	unimp
    2e5c:	1890                	addi	a2,sp,112
    2e5e:	0000                	unimp
    2e60:	1a16                	slli	s4,s4,0x25
    2e62:	0000                	unimp
    2e64:	1890                	addi	a2,sp,112
    2e66:	0000                	unimp
    2e68:	19ca                	slli	s3,s3,0x32
    2e6a:	0000                	unimp
    2e6c:	1a22                	slli	s4,s4,0x28
    2e6e:	0000                	unimp
    2e70:	1a22                	slli	s4,s4,0x28
    2e72:	0000                	unimp
    2e74:	1a16                	slli	s4,s4,0x25
    2e76:	0000                	unimp
    2e78:	19ca                	slli	s3,s3,0x32
    2e7a:	0000                	unimp
    2e7c:	1878                	addi	a4,sp,60
    2e7e:	0000                	unimp
    2e80:	1878                	addi	a4,sp,60
    2e82:	0000                	unimp
    2e84:	1878                	addi	a4,sp,60
    2e86:	0000                	unimp
    2e88:	1a16                	slli	s4,s4,0x25
	...

00002e8c <__clz_tab>:
    2e8c:	0100 0202 0303 0303 0404 0404 0404 0404     ................
    2e9c:	0505 0505 0505 0505 0505 0505 0505 0505     ................
    2eac:	0606 0606 0606 0606 0606 0606 0606 0606     ................
    2ebc:	0606 0606 0606 0606 0606 0606 0606 0606     ................
    2ecc:	0707 0707 0707 0707 0707 0707 0707 0707     ................
    2edc:	0707 0707 0707 0707 0707 0707 0707 0707     ................
    2eec:	0707 0707 0707 0707 0707 0707 0707 0707     ................
    2efc:	0707 0707 0707 0707 0707 0707 0707 0707     ................
    2f0c:	0808 0808 0808 0808 0808 0808 0808 0808     ................
    2f1c:	0808 0808 0808 0808 0808 0808 0808 0808     ................
    2f2c:	0808 0808 0808 0808 0808 0808 0808 0808     ................
    2f3c:	0808 0808 0808 0808 0808 0808 0808 0808     ................
    2f4c:	0808 0808 0808 0808 0808 0808 0808 0808     ................
    2f5c:	0808 0808 0808 0808 0808 0808 0808 0808     ................
    2f6c:	0808 0808 0808 0808 0808 0808 0808 0808     ................
    2f7c:	0808 0808 0808 0808 0808 0808 0808 0808     ................
    2f8c:	6972 6867 0074 0000 656c 7466 0000 0000     right...left....
    2f9c:	7075 0000 6f64 6e77 0000 0000 7453 7065     up..down....Step
    2fac:	203a 7325 000a 0000 3039 0064 0a0a 3536     : %s....90d...65
    2fbc:	0000 0000 0a0a 0030                         ......0.
